ARM GAS  C:\Users\cdc75\AppData\Local\Temp\ccFOrxS5.s 			page 1


   1              		.cpu cortex-m0
   2              		.fpu softvfp
   3              		.eabi_attribute 20, 1
   4              		.eabi_attribute 21, 1
   5              		.eabi_attribute 23, 3
   6              		.eabi_attribute 24, 1
   7              		.eabi_attribute 25, 1
   8              		.eabi_attribute 26, 1
   9              		.eabi_attribute 30, 1
  10              		.eabi_attribute 34, 0
  11              		.eabi_attribute 18, 4
  12              		.code	16
  13              		.file	"main.c"
  14              		.text
  15              	.Ltext0:
  16              		.cfi_sections	.debug_frame
  17              		.section	.text.Timer_Int_Handler,"ax",%progbits
  18              		.align	2
  19              		.global	Timer_Int_Handler
  20              		.code	16
  21              		.thumb_func
  22              		.type	Timer_Int_Handler, %function
  23              	Timer_Int_Handler:
  24              	.LFB34:
  25              		.file 1 ".\\main.c"
   1:.\main.c      **** /* ========================================
   2:.\main.c      ****  *
   3:.\main.c      ****  * Copyright YOUR COMPANY, THE YEAR
   4:.\main.c      ****  * All Rights Reserved
   5:.\main.c      ****  * UNPUBLISHED, LICENSED SOFTWARE.
   6:.\main.c      ****  *
   7:.\main.c      ****  * CONFIDENTIAL AND PROPRIETARY INFORMATION
   8:.\main.c      ****  * WHICH IS THE PROPERTY OF your company.
   9:.\main.c      ****  *
  10:.\main.c      ****  * ========================================
  11:.\main.c      **** */
  12:.\main.c      **** #include <project.h>
  13:.\main.c      **** 
  14:.\main.c      **** CY_ISR (Timer_Int_Handler)
  15:.\main.c      **** {
  26              		.loc 1 15 0
  27              		.cfi_startproc
  28 0000 08B5     		push	{r3, lr}
  29              		.cfi_def_cfa_offset 8
  30              		.cfi_offset 3, -8
  31              		.cfi_offset 14, -4
  16:.\main.c      ****     Timer_ClearInterrupt(Timer_INTR_MASK_TC);
  32              		.loc 1 16 0
  33 0002 0120     		mov	r0, #1
  34 0004 FFF7FEFF 		bl	Timer_ClearInterrupt
  35              	.LVL0:
  17:.\main.c      **** }
  36              		.loc 1 17 0
  37              		@ sp needed
  38 0008 08BD     		pop	{r3, pc}
  39              		.cfi_endproc
  40              	.LFE34:
ARM GAS  C:\Users\cdc75\AppData\Local\Temp\ccFOrxS5.s 			page 2


  41              		.size	Timer_Int_Handler, .-Timer_Int_Handler
  42              		.section	.text.main,"ax",%progbits
  43              		.align	2
  44              		.global	main
  45              		.code	16
  46              		.thumb_func
  47              		.type	main, %function
  48              	main:
  49              	.LFB35:
  18:.\main.c      **** 
  19:.\main.c      **** int main()
  20:.\main.c      **** {
  50              		.loc 1 20 0
  51              		.cfi_startproc
  52 0000 08B5     		push	{r3, lr}
  53              		.cfi_def_cfa_offset 8
  54              		.cfi_offset 3, -8
  55              		.cfi_offset 14, -4
  21:.\main.c      ****     CyGlobalIntEnable;  /* Enable global interrupts */
  56              		.loc 1 21 0
  57              	@ 21 ".\main.c" 1
  58 0002 62B6     		CPSIE   i
  59              	@ 0 "" 2
  22:.\main.c      ****     
  23:.\main.c      ****     UART_Start();
  60              		.loc 1 23 0
  61              		.code	16
  62 0004 FFF7FEFF 		bl	UART_Start
  63              	.LVL1:
  24:.\main.c      ****     
  25:.\main.c      ****     Timer_Int_StartEx(Timer_Int_Handler);
  64              		.loc 1 25 0
  65 0008 0848     		ldr	r0, .L4
  66 000a FFF7FEFF 		bl	Timer_Int_StartEx
  67              	.LVL2:
  68              	.L3:
  26:.\main.c      ****     
  27:.\main.c      ****     /* Place your initialization/startup code here (e.g. MyInst_Start()) */
  28:.\main.c      ****     
  29:.\main.c      ****     for(;;)
  30:.\main.c      ****     {
  31:.\main.c      ****         CyDelay(5000);
  69              		.loc 1 31 0 discriminator 1
  70 000e 0848     		ldr	r0, .L4+4
  71 0010 FFF7FEFF 		bl	CyDelay
  72              	.LVL3:
  32:.\main.c      ****         UART_UartPutString("Sleeping...\r\n");
  73              		.loc 1 32 0 discriminator 1
  74 0014 0748     		ldr	r0, .L4+8
  75 0016 FFF7FEFF 		bl	UART_UartPutString
  76              	.LVL4:
  33:.\main.c      ****         Timer_Start();
  77              		.loc 1 33 0 discriminator 1
  78 001a FFF7FEFF 		bl	Timer_Start
  79              	.LVL5:
  34:.\main.c      ****         CySysPmSleep();
  80              		.loc 1 34 0 discriminator 1
ARM GAS  C:\Users\cdc75\AppData\Local\Temp\ccFOrxS5.s 			page 3


  81 001e FFF7FEFF 		bl	CySysPmSleep
  82              	.LVL6:
  35:.\main.c      ****         UART_UartPutString("AWAKE! \r\n");
  83              		.loc 1 35 0 discriminator 1
  84 0022 0548     		ldr	r0, .L4+12
  85 0024 FFF7FEFF 		bl	UART_UartPutString
  86              	.LVL7:
  36:.\main.c      ****     }
  87              		.loc 1 36 0 discriminator 1
  88 0028 F1E7     		b	.L3
  89              	.L5:
  90 002a C046     		.align	2
  91              	.L4:
  92 002c 00000000 		.word	Timer_Int_Handler
  93 0030 88130000 		.word	5000
  94 0034 00000000 		.word	.LC1
  95 0038 10000000 		.word	.LC3
  96              		.cfi_endproc
  97              	.LFE35:
  98              		.size	main, .-main
  99              		.section	.rodata.str1.4,"aMS",%progbits,1
 100              		.align	2
 101              	.LC1:
 102 0000 536C6565 		.ascii	"Sleeping...\015\012\000"
 102      70696E67 
 102      2E2E2E0D 
 102      0A00
 103 000e 0000     		.space	2
 104              	.LC3:
 105 0010 4157414B 		.ascii	"AWAKE! \015\012\000"
 105      4521200D 
 105      0A00
 106 001a 0000     		.text
 107              	.Letext0:
 108              		.file 2 "Generated_Source\\PSoC4/cytypes.h"
 109              		.file 3 "Generated_Source\\PSoC4/Timer.h"
 110              		.file 4 "Generated_Source\\PSoC4/Timer_Int.h"
 111              		.file 5 "Generated_Source\\PSoC4/CyLib.h"
 112              		.file 6 "Generated_Source\\PSoC4/UART_SPI_UART.h"
 113              		.file 7 "Generated_Source\\PSoC4/UART.h"
 114              		.file 8 "Generated_Source\\PSoC4/cyPm.h"