ARM GAS  C:\Users\cdc75\AppData\Local\Temp\ccz5LJyZ.s 			page 1


   1              		.cpu cortex-m0
   2              		.fpu softvfp
   3              		.eabi_attribute 20, 1
   4              		.eabi_attribute 21, 1
   5              		.eabi_attribute 23, 3
   6              		.eabi_attribute 24, 1
   7              		.eabi_attribute 25, 1
   8              		.eabi_attribute 26, 1
   9              		.eabi_attribute 30, 1
  10              		.eabi_attribute 34, 0
  11              		.eabi_attribute 18, 4
  12              		.code	16
  13              		.file	"I2C_EZI2C.c"
  14              		.text
  15              	.Ltext0:
  16              		.cfi_sections	.debug_frame
  17              		.section	.text.I2C_EzI2CInit,"ax",%progbits
  18              		.align	2
  19              		.global	I2C_EzI2CInit
  20              		.code	16
  21              		.thumb_func
  22              		.type	I2C_EzI2CInit, %function
  23              	I2C_EzI2CInit:
  24              	.LFB0:
  25              		.file 1 ".\\Generated_Source\\PSoC4\\I2C_EZI2C.c"
   1:.\Generated_Source\PSoC4/I2C_EZI2C.c **** /***************************************************************************//**
   2:.\Generated_Source\PSoC4/I2C_EZI2C.c **** * \file I2C_EZI2C.c
   3:.\Generated_Source\PSoC4/I2C_EZI2C.c **** * \version 3.20
   4:.\Generated_Source\PSoC4/I2C_EZI2C.c **** *
   5:.\Generated_Source\PSoC4/I2C_EZI2C.c **** * \brief
   6:.\Generated_Source\PSoC4/I2C_EZI2C.c **** *  This file provides the source code to the API for the SCB Component in
   7:.\Generated_Source\PSoC4/I2C_EZI2C.c **** *  EZI2C mode.
   8:.\Generated_Source\PSoC4/I2C_EZI2C.c **** *
   9:.\Generated_Source\PSoC4/I2C_EZI2C.c **** * Note:
  10:.\Generated_Source\PSoC4/I2C_EZI2C.c **** *
  11:.\Generated_Source\PSoC4/I2C_EZI2C.c **** *******************************************************************************
  12:.\Generated_Source\PSoC4/I2C_EZI2C.c **** * \copyright
  13:.\Generated_Source\PSoC4/I2C_EZI2C.c **** * Copyright 2013-2016, Cypress Semiconductor Corporation.  All rights reserved.
  14:.\Generated_Source\PSoC4/I2C_EZI2C.c **** * You may use this file only in accordance with the license, terms, conditions,
  15:.\Generated_Source\PSoC4/I2C_EZI2C.c **** * disclaimers, and limitations in the end user license agreement accompanying
  16:.\Generated_Source\PSoC4/I2C_EZI2C.c **** * the software package with which this file was provided.
  17:.\Generated_Source\PSoC4/I2C_EZI2C.c **** *******************************************************************************/
  18:.\Generated_Source\PSoC4/I2C_EZI2C.c **** 
  19:.\Generated_Source\PSoC4/I2C_EZI2C.c **** #include "I2C_PVT.h"
  20:.\Generated_Source\PSoC4/I2C_EZI2C.c **** #include "I2C_EZI2C_PVT.h"
  21:.\Generated_Source\PSoC4/I2C_EZI2C.c **** 
  22:.\Generated_Source\PSoC4/I2C_EZI2C.c **** 
  23:.\Generated_Source\PSoC4/I2C_EZI2C.c **** /***************************************
  24:.\Generated_Source\PSoC4/I2C_EZI2C.c **** *      EZI2C Private Vars
  25:.\Generated_Source\PSoC4/I2C_EZI2C.c **** ***************************************/
  26:.\Generated_Source\PSoC4/I2C_EZI2C.c **** 
  27:.\Generated_Source\PSoC4/I2C_EZI2C.c **** volatile uint8 I2C_curStatus; /* Status byte */
  28:.\Generated_Source\PSoC4/I2C_EZI2C.c **** uint8 I2C_fsmState;           /* FSM state   */
  29:.\Generated_Source\PSoC4/I2C_EZI2C.c **** 
  30:.\Generated_Source\PSoC4/I2C_EZI2C.c **** /* Variables intended to be used with Buffer 1: Primary slave address */
  31:.\Generated_Source\PSoC4/I2C_EZI2C.c **** volatile uint8 * I2C_dataBuffer1; /* Pointer to data buffer 1 */
  32:.\Generated_Source\PSoC4/I2C_EZI2C.c **** uint16 I2C_bufSizeBuf1;           /* Size of buffer 1 in bytes      */
ARM GAS  C:\Users\cdc75\AppData\Local\Temp\ccz5LJyZ.s 			page 2


  33:.\Generated_Source\PSoC4/I2C_EZI2C.c **** uint16 I2C_protectBuf1;           /* Start index of write protected area buffer 1 */
  34:.\Generated_Source\PSoC4/I2C_EZI2C.c **** uint8 I2C_offsetBuf1; /* Current offset within buffer 1 */
  35:.\Generated_Source\PSoC4/I2C_EZI2C.c **** uint16 I2C_indexBuf1;             /* Current index within buffer 1  */
  36:.\Generated_Source\PSoC4/I2C_EZI2C.c **** 
  37:.\Generated_Source\PSoC4/I2C_EZI2C.c **** #if(I2C_SECONDARY_ADDRESS_ENABLE_CONST)
  38:.\Generated_Source\PSoC4/I2C_EZI2C.c ****     uint8 I2C_addrBuf1; /* Primary slave address. Used for software comparison   */
  39:.\Generated_Source\PSoC4/I2C_EZI2C.c ****     uint8 I2C_addrBuf2; /* Secondary slave address. Used for software comparison */
  40:.\Generated_Source\PSoC4/I2C_EZI2C.c **** 
  41:.\Generated_Source\PSoC4/I2C_EZI2C.c ****     /* Variables intended to be used with Buffer 2: Primary slave address */
  42:.\Generated_Source\PSoC4/I2C_EZI2C.c ****     volatile uint8 * I2C_dataBuffer2; /* Pointer to data buffer 2 */
  43:.\Generated_Source\PSoC4/I2C_EZI2C.c ****     uint16 I2C_bufSizeBuf2;           /* Size of buffer 2 in bytes */
  44:.\Generated_Source\PSoC4/I2C_EZI2C.c ****     uint16 I2C_protectBuf2;           /* Start index of write protected area buffer 2 */
  45:.\Generated_Source\PSoC4/I2C_EZI2C.c ****     uint8 I2C_offsetBuf2; /* Current offset within buffer 2 */
  46:.\Generated_Source\PSoC4/I2C_EZI2C.c ****     uint16 I2C_indexBuf2;             /* Current index within buffer 2 */
  47:.\Generated_Source\PSoC4/I2C_EZI2C.c **** #endif /* (I2C_SECONDARY_ADDRESS_ENABLE_CONST) */
  48:.\Generated_Source\PSoC4/I2C_EZI2C.c **** 
  49:.\Generated_Source\PSoC4/I2C_EZI2C.c **** 
  50:.\Generated_Source\PSoC4/I2C_EZI2C.c **** /***************************************
  51:.\Generated_Source\PSoC4/I2C_EZI2C.c **** *      EZI2C Private Functions
  52:.\Generated_Source\PSoC4/I2C_EZI2C.c **** ***************************************/
  53:.\Generated_Source\PSoC4/I2C_EZI2C.c **** 
  54:.\Generated_Source\PSoC4/I2C_EZI2C.c **** #if(I2C_SECONDARY_ADDRESS_ENABLE_CONST)
  55:.\Generated_Source\PSoC4/I2C_EZI2C.c ****     static uint32 I2C_EzI2CUpdateRxMatchReg(uint32 addr1, uint32 addr2);
  56:.\Generated_Source\PSoC4/I2C_EZI2C.c **** #endif /* (I2C_SECONDARY_ADDRESS_ENABLE_CONST) */
  57:.\Generated_Source\PSoC4/I2C_EZI2C.c **** 
  58:.\Generated_Source\PSoC4/I2C_EZI2C.c **** #if(I2C_SCB_MODE_UNCONFIG_CONST_CFG)
  59:.\Generated_Source\PSoC4/I2C_EZI2C.c **** 
  60:.\Generated_Source\PSoC4/I2C_EZI2C.c ****     /***************************************
  61:.\Generated_Source\PSoC4/I2C_EZI2C.c ****     *  Configuration Structure Initialization
  62:.\Generated_Source\PSoC4/I2C_EZI2C.c ****     ***************************************/
  63:.\Generated_Source\PSoC4/I2C_EZI2C.c **** 
  64:.\Generated_Source\PSoC4/I2C_EZI2C.c ****     /* Constant configuration of EZI2C */
  65:.\Generated_Source\PSoC4/I2C_EZI2C.c ****     const I2C_EZI2C_INIT_STRUCT I2C_configEzI2C =
  66:.\Generated_Source\PSoC4/I2C_EZI2C.c ****     {
  67:.\Generated_Source\PSoC4/I2C_EZI2C.c ****         I2C_EZI2C_CLOCK_STRETCHING,
  68:.\Generated_Source\PSoC4/I2C_EZI2C.c ****         I2C_EZI2C_MEDIAN_FILTER_ENABLE,
  69:.\Generated_Source\PSoC4/I2C_EZI2C.c ****         I2C_EZI2C_NUMBER_OF_ADDRESSES,
  70:.\Generated_Source\PSoC4/I2C_EZI2C.c ****         I2C_EZI2C_PRIMARY_SLAVE_ADDRESS,
  71:.\Generated_Source\PSoC4/I2C_EZI2C.c ****         I2C_EZI2C_SECONDARY_SLAVE_ADDRESS,
  72:.\Generated_Source\PSoC4/I2C_EZI2C.c ****         I2C_EZI2C_SUB_ADDRESS_SIZE,
  73:.\Generated_Source\PSoC4/I2C_EZI2C.c ****         I2C_EZI2C_WAKE_ENABLE,
  74:.\Generated_Source\PSoC4/I2C_EZI2C.c ****         I2C_EZI2C_BYTE_MODE_ENABLE
  75:.\Generated_Source\PSoC4/I2C_EZI2C.c ****     };
  76:.\Generated_Source\PSoC4/I2C_EZI2C.c **** 
  77:.\Generated_Source\PSoC4/I2C_EZI2C.c ****     /*******************************************************************************
  78:.\Generated_Source\PSoC4/I2C_EZI2C.c ****     * Function Name: I2C_EzI2CInit
  79:.\Generated_Source\PSoC4/I2C_EZI2C.c ****     ****************************************************************************//**
  80:.\Generated_Source\PSoC4/I2C_EZI2C.c ****     *
  81:.\Generated_Source\PSoC4/I2C_EZI2C.c ****     *  Configures the I2C for EZI2C operation.
  82:.\Generated_Source\PSoC4/I2C_EZI2C.c ****     *
  83:.\Generated_Source\PSoC4/I2C_EZI2C.c ****     *  This function is intended specifically to be used when the I2C 
  84:.\Generated_Source\PSoC4/I2C_EZI2C.c ****     *  configuration is set to “Unconfigured I2C” in the customizer. 
  85:.\Generated_Source\PSoC4/I2C_EZI2C.c ****     *  After initializing the I2C in EZI2C mode using this function, 
  86:.\Generated_Source\PSoC4/I2C_EZI2C.c ****     *  the component can be enabled using the I2C_Start() or 
  87:.\Generated_Source\PSoC4/I2C_EZI2C.c ****     * I2C_Enable() function.
  88:.\Generated_Source\PSoC4/I2C_EZI2C.c ****     *  This function uses a pointer to a structure that provides the configuration 
  89:.\Generated_Source\PSoC4/I2C_EZI2C.c ****     *  settings. This structure contains the same information that would otherwise 
ARM GAS  C:\Users\cdc75\AppData\Local\Temp\ccz5LJyZ.s 			page 3


  90:.\Generated_Source\PSoC4/I2C_EZI2C.c ****     *  be provided by the customizer settings.
  91:.\Generated_Source\PSoC4/I2C_EZI2C.c ****     *
  92:.\Generated_Source\PSoC4/I2C_EZI2C.c ****     * \param config: pointer to a structure that contains the following list of 
  93:.\Generated_Source\PSoC4/I2C_EZI2C.c ****     *  fields. These fields match the selections available in the customizer. 
  94:.\Generated_Source\PSoC4/I2C_EZI2C.c ****     *  Refer to the customizer for further description of the settings.
  95:.\Generated_Source\PSoC4/I2C_EZI2C.c ****     *
  96:.\Generated_Source\PSoC4/I2C_EZI2C.c ****     *******************************************************************************/
  97:.\Generated_Source\PSoC4/I2C_EZI2C.c ****     void I2C_EzI2CInit(const I2C_EZI2C_INIT_STRUCT *config)
  98:.\Generated_Source\PSoC4/I2C_EZI2C.c ****     {
  99:.\Generated_Source\PSoC4/I2C_EZI2C.c ****         if(NULL == config)
 100:.\Generated_Source\PSoC4/I2C_EZI2C.c ****         {
 101:.\Generated_Source\PSoC4/I2C_EZI2C.c ****             CYASSERT(0u != 0u); /* Halt execution due to bad function parameter */
 102:.\Generated_Source\PSoC4/I2C_EZI2C.c ****         }
 103:.\Generated_Source\PSoC4/I2C_EZI2C.c ****         else
 104:.\Generated_Source\PSoC4/I2C_EZI2C.c ****         {
 105:.\Generated_Source\PSoC4/I2C_EZI2C.c ****             /* Configure pins */
 106:.\Generated_Source\PSoC4/I2C_EZI2C.c ****             I2C_SetPins(I2C_SCB_MODE_EZI2C, I2C_DUMMY_PARAM,
 107:.\Generated_Source\PSoC4/I2C_EZI2C.c ****                                                                       I2C_DUMMY_PARAM);
 108:.\Generated_Source\PSoC4/I2C_EZI2C.c **** 
 109:.\Generated_Source\PSoC4/I2C_EZI2C.c ****             /* Store internal configuration */
 110:.\Generated_Source\PSoC4/I2C_EZI2C.c ****             I2C_scbMode       = (uint8) I2C_SCB_MODE_EZI2C;
 111:.\Generated_Source\PSoC4/I2C_EZI2C.c ****             I2C_scbEnableWake = (uint8) config->enableWake;
 112:.\Generated_Source\PSoC4/I2C_EZI2C.c ****             I2C_scbEnableIntr = (uint8) I2C_SCB_IRQ_INTERNAL;
 113:.\Generated_Source\PSoC4/I2C_EZI2C.c **** 
 114:.\Generated_Source\PSoC4/I2C_EZI2C.c ****             I2C_numberOfAddr  = (uint8) config->numberOfAddresses;
 115:.\Generated_Source\PSoC4/I2C_EZI2C.c ****             I2C_subAddrSize   = (uint8) config->subAddrSize;
 116:.\Generated_Source\PSoC4/I2C_EZI2C.c **** 
 117:.\Generated_Source\PSoC4/I2C_EZI2C.c ****         #if (I2C_CY_SCBIP_V0)
 118:.\Generated_Source\PSoC4/I2C_EZI2C.c ****             /* Adjust SDA filter settings. Ticket ID#150521 */
 119:.\Generated_Source\PSoC4/I2C_EZI2C.c ****             I2C_SET_I2C_CFG_SDA_FILT_TRIM(I2C_EC_AM_I2C_CFG_SDA_FILT_TRIM);
 120:.\Generated_Source\PSoC4/I2C_EZI2C.c ****         #endif /* (I2C_CY_SCBIP_V0) */
 121:.\Generated_Source\PSoC4/I2C_EZI2C.c **** 
 122:.\Generated_Source\PSoC4/I2C_EZI2C.c ****             /* Adjust AF and DF filter settings, AF = 1, DF = 0. Ticket ID#176179 */
 123:.\Generated_Source\PSoC4/I2C_EZI2C.c ****             I2C_I2C_CFG_ANALOG_FITER_ENABLE;
 124:.\Generated_Source\PSoC4/I2C_EZI2C.c **** 
 125:.\Generated_Source\PSoC4/I2C_EZI2C.c ****             /* Configure I2C interface */
 126:.\Generated_Source\PSoC4/I2C_EZI2C.c ****             I2C_CTRL_REG     = I2C_GET_CTRL_BYTE_MODE  (config->enableByteMode)    |
 127:.\Generated_Source\PSoC4/I2C_EZI2C.c ****                                             I2C_GET_CTRL_ADDR_ACCEPT(config->numberOfAddresses) |
 128:.\Generated_Source\PSoC4/I2C_EZI2C.c ****                                             I2C_GET_CTRL_EC_AM_MODE (config->enableWake);
 129:.\Generated_Source\PSoC4/I2C_EZI2C.c **** 
 130:.\Generated_Source\PSoC4/I2C_EZI2C.c ****             I2C_I2C_CTRL_REG = I2C_EZI2C_CTRL;
 131:.\Generated_Source\PSoC4/I2C_EZI2C.c **** 
 132:.\Generated_Source\PSoC4/I2C_EZI2C.c ****             /* Configure RX direction */
 133:.\Generated_Source\PSoC4/I2C_EZI2C.c ****             I2C_RX_CTRL_REG = I2C_EZI2C_RX_CTRL |
 134:.\Generated_Source\PSoC4/I2C_EZI2C.c ****                                         I2C_GET_RX_CTRL_MEDIAN(I2C_DIGITAL_FILTER_DISABLE);
 135:.\Generated_Source\PSoC4/I2C_EZI2C.c ****                                                 ;
 136:.\Generated_Source\PSoC4/I2C_EZI2C.c ****             I2C_RX_FIFO_CTRL_REG = I2C_CLEAR_REG;
 137:.\Generated_Source\PSoC4/I2C_EZI2C.c **** 
 138:.\Generated_Source\PSoC4/I2C_EZI2C.c ****             /* Set default address and mask */
 139:.\Generated_Source\PSoC4/I2C_EZI2C.c ****             if(I2C_EZI2C_PRIMARY_ADDRESS == config->numberOfAddresses)
 140:.\Generated_Source\PSoC4/I2C_EZI2C.c ****             {
 141:.\Generated_Source\PSoC4/I2C_EZI2C.c ****                 I2C_RX_MATCH_REG = I2C_EzI2CUpdateRxMatchReg(config->primarySlaveAddr,
 142:.\Generated_Source\PSoC4/I2C_EZI2C.c ****                                                                                        config->prim
 143:.\Generated_Source\PSoC4/I2C_EZI2C.c ****             }
 144:.\Generated_Source\PSoC4/I2C_EZI2C.c ****             else
 145:.\Generated_Source\PSoC4/I2C_EZI2C.c ****             {
 146:.\Generated_Source\PSoC4/I2C_EZI2C.c ****                 I2C_RX_MATCH_REG = I2C_EzI2CUpdateRxMatchReg(config->primarySlaveAddr,
ARM GAS  C:\Users\cdc75\AppData\Local\Temp\ccz5LJyZ.s 			page 4


 147:.\Generated_Source\PSoC4/I2C_EZI2C.c ****                                                                                        config->seco
 148:.\Generated_Source\PSoC4/I2C_EZI2C.c ****             }
 149:.\Generated_Source\PSoC4/I2C_EZI2C.c **** 
 150:.\Generated_Source\PSoC4/I2C_EZI2C.c ****             /* Configure TX direction */
 151:.\Generated_Source\PSoC4/I2C_EZI2C.c ****             I2C_TX_CTRL_REG      = I2C_EZI2C_TX_CTRL;
 152:.\Generated_Source\PSoC4/I2C_EZI2C.c ****             I2C_TX_FIFO_CTRL_REG = ((0u != (config->enableClockStretch)) ?
 153:.\Generated_Source\PSoC4/I2C_EZI2C.c ****                                                  I2C_CLEAR_REG : I2C_EZI2C_TX_FIFO_CTRL);
 154:.\Generated_Source\PSoC4/I2C_EZI2C.c **** 
 155:.\Generated_Source\PSoC4/I2C_EZI2C.c ****             /* Configure interrupt sources */
 156:.\Generated_Source\PSoC4/I2C_EZI2C.c ****         #if (!I2C_CY_SCBIP_V1)
 157:.\Generated_Source\PSoC4/I2C_EZI2C.c ****            I2C_INTR_SPI_EC_MASK_REG = I2C_NO_INTR_SOURCES;
 158:.\Generated_Source\PSoC4/I2C_EZI2C.c ****         #endif /* (!I2C_CY_SCBIP_V1) */
 159:.\Generated_Source\PSoC4/I2C_EZI2C.c **** 
 160:.\Generated_Source\PSoC4/I2C_EZI2C.c ****             I2C_INTR_I2C_EC_MASK_REG = I2C_NO_INTR_SOURCES;
 161:.\Generated_Source\PSoC4/I2C_EZI2C.c ****             I2C_INTR_MASTER_MASK_REG = I2C_NO_INTR_SOURCES;
 162:.\Generated_Source\PSoC4/I2C_EZI2C.c ****             I2C_INTR_SLAVE_MASK_REG  = I2C_EZI2C_INTR_SLAVE_MASK;
 163:.\Generated_Source\PSoC4/I2C_EZI2C.c ****             I2C_INTR_TX_MASK_REG     = I2C_NO_INTR_SOURCES;
 164:.\Generated_Source\PSoC4/I2C_EZI2C.c **** 
 165:.\Generated_Source\PSoC4/I2C_EZI2C.c ****             /* Configure interrupt with EZI2C handler but do not enable it */
 166:.\Generated_Source\PSoC4/I2C_EZI2C.c ****             CyIntDisable    (I2C_ISR_NUMBER);
 167:.\Generated_Source\PSoC4/I2C_EZI2C.c ****             CyIntSetPriority(I2C_ISR_NUMBER, I2C_ISR_PRIORITY);
 168:.\Generated_Source\PSoC4/I2C_EZI2C.c ****             (void) CyIntSetVector(I2C_ISR_NUMBER, (0u != (config->enableClockStretch)) ?
 169:.\Generated_Source\PSoC4/I2C_EZI2C.c ****                                                                       (&I2C_EZI2C_STRETCH_ISR) :
 170:.\Generated_Source\PSoC4/I2C_EZI2C.c ****                                                                       (&I2C_EZI2C_NO_STRETCH_ISR));
 171:.\Generated_Source\PSoC4/I2C_EZI2C.c **** 
 172:.\Generated_Source\PSoC4/I2C_EZI2C.c ****             if(0u != (config->enableClockStretch))
 173:.\Generated_Source\PSoC4/I2C_EZI2C.c ****             {
 174:.\Generated_Source\PSoC4/I2C_EZI2C.c ****                 /* Configure interrupt sources */
 175:.\Generated_Source\PSoC4/I2C_EZI2C.c ****                 I2C_INTR_SLAVE_MASK_REG |= I2C_INTR_SLAVE_I2C_ADDR_MATCH;
 176:.\Generated_Source\PSoC4/I2C_EZI2C.c ****                 I2C_INTR_RX_MASK_REG     = I2C_NO_INTR_SOURCES;
 177:.\Generated_Source\PSoC4/I2C_EZI2C.c ****             }
 178:.\Generated_Source\PSoC4/I2C_EZI2C.c ****             else
 179:.\Generated_Source\PSoC4/I2C_EZI2C.c ****             {
 180:.\Generated_Source\PSoC4/I2C_EZI2C.c ****                 /* Enable Auto ACK/NACK features */
 181:.\Generated_Source\PSoC4/I2C_EZI2C.c ****                 I2C_I2C_CTRL_REG |= I2C_EZI2C_CTRL_AUTO;
 182:.\Generated_Source\PSoC4/I2C_EZI2C.c **** 
 183:.\Generated_Source\PSoC4/I2C_EZI2C.c ****                 /* Configure RX interrupt source */
 184:.\Generated_Source\PSoC4/I2C_EZI2C.c ****                 I2C_INTR_SLAVE_MASK_REG |= I2C_INTR_SLAVE_I2C_START;
 185:.\Generated_Source\PSoC4/I2C_EZI2C.c ****                 I2C_INTR_RX_MASK_REG     = I2C_INTR_RX_NOT_EMPTY;
 186:.\Generated_Source\PSoC4/I2C_EZI2C.c ****             }
 187:.\Generated_Source\PSoC4/I2C_EZI2C.c **** 
 188:.\Generated_Source\PSoC4/I2C_EZI2C.c ****             /* Configure global variables */
 189:.\Generated_Source\PSoC4/I2C_EZI2C.c ****             I2C_fsmState = I2C_EZI2C_FSM_IDLE;
 190:.\Generated_Source\PSoC4/I2C_EZI2C.c **** 
 191:.\Generated_Source\PSoC4/I2C_EZI2C.c ****             I2C_curStatus  = 0u;
 192:.\Generated_Source\PSoC4/I2C_EZI2C.c ****             I2C_indexBuf1  = 0u;
 193:.\Generated_Source\PSoC4/I2C_EZI2C.c ****             I2C_offsetBuf1 = 0u;
 194:.\Generated_Source\PSoC4/I2C_EZI2C.c ****             I2C_indexBuf2  = 0u;
 195:.\Generated_Source\PSoC4/I2C_EZI2C.c ****             I2C_offsetBuf2 = 0u;
 196:.\Generated_Source\PSoC4/I2C_EZI2C.c **** 
 197:.\Generated_Source\PSoC4/I2C_EZI2C.c ****             I2C_addrBuf1 = (uint8) config->primarySlaveAddr;
 198:.\Generated_Source\PSoC4/I2C_EZI2C.c ****             I2C_addrBuf2 = (uint8) config->secondarySlaveAddr;
 199:.\Generated_Source\PSoC4/I2C_EZI2C.c ****         }
 200:.\Generated_Source\PSoC4/I2C_EZI2C.c ****     }
 201:.\Generated_Source\PSoC4/I2C_EZI2C.c **** 
 202:.\Generated_Source\PSoC4/I2C_EZI2C.c **** #else
 203:.\Generated_Source\PSoC4/I2C_EZI2C.c **** 
ARM GAS  C:\Users\cdc75\AppData\Local\Temp\ccz5LJyZ.s 			page 5


 204:.\Generated_Source\PSoC4/I2C_EZI2C.c ****     /*******************************************************************************
 205:.\Generated_Source\PSoC4/I2C_EZI2C.c ****     * Function Name: I2C_EzI2CInit
 206:.\Generated_Source\PSoC4/I2C_EZI2C.c ****     ****************************************************************************//**
 207:.\Generated_Source\PSoC4/I2C_EZI2C.c ****     *
 208:.\Generated_Source\PSoC4/I2C_EZI2C.c ****     *  Configures the SCB for the EZI2C operation.
 209:.\Generated_Source\PSoC4/I2C_EZI2C.c ****     *
 210:.\Generated_Source\PSoC4/I2C_EZI2C.c ****     *******************************************************************************/
 211:.\Generated_Source\PSoC4/I2C_EZI2C.c ****     void I2C_EzI2CInit(void)
 212:.\Generated_Source\PSoC4/I2C_EZI2C.c ****     {
  26              		.loc 1 212 0
  27              		.cfi_startproc
  28 0000 10B5     		push	{r4, lr}
  29              		.cfi_def_cfa_offset 8
  30              		.cfi_offset 4, -8
  31              		.cfi_offset 14, -4
 213:.\Generated_Source\PSoC4/I2C_EZI2C.c ****         /* Configure I2C interface */
 214:.\Generated_Source\PSoC4/I2C_EZI2C.c ****         I2C_CTRL_REG     = I2C_EZI2C_DEFAULT_CTRL;
  32              		.loc 1 214 0
  33 0002 8022     		mov	r2, #128
  34 0004 5200     		lsl	r2, r2, #1
  35 0006 1D4B     		ldr	r3, .L2
  36 0008 1A60     		str	r2, [r3]
 215:.\Generated_Source\PSoC4/I2C_EZI2C.c ****         I2C_I2C_CTRL_REG = I2C_EZI2C_DEFAULT_I2C_CTRL;
  37              		.loc 1 215 0
  38 000a 1D4A     		ldr	r2, .L2+4
  39 000c 1D4B     		ldr	r3, .L2+8
  40 000e 1A60     		str	r2, [r3]
 216:.\Generated_Source\PSoC4/I2C_EZI2C.c **** 
 217:.\Generated_Source\PSoC4/I2C_EZI2C.c ****     #if (I2C_CY_SCBIP_V0)
 218:.\Generated_Source\PSoC4/I2C_EZI2C.c ****         /* Adjust SDA filter settings. Ticket ID#150521 */
 219:.\Generated_Source\PSoC4/I2C_EZI2C.c ****         I2C_SET_I2C_CFG_SDA_FILT_TRIM(I2C_EC_AM_I2C_CFG_SDA_FILT_TRIM);
  41              		.loc 1 219 0
  42 0010 1D4A     		ldr	r2, .L2+12
  43 0012 1168     		ldr	r1, [r2]
  44 0014 0C23     		mov	r3, #12
  45 0016 0B43     		orr	r3, r1
  46 0018 1360     		str	r3, [r2]
 220:.\Generated_Source\PSoC4/I2C_EZI2C.c ****     #endif /* (I2C_CY_SCBIP_V0) */
 221:.\Generated_Source\PSoC4/I2C_EZI2C.c **** 
 222:.\Generated_Source\PSoC4/I2C_EZI2C.c ****         /* Configure RX direction */
 223:.\Generated_Source\PSoC4/I2C_EZI2C.c ****         I2C_RX_CTRL_REG      = I2C_EZI2C_DEFAULT_RX_CTRL;
  47              		.loc 1 223 0
  48 001a 1C4B     		ldr	r3, .L2+16
  49 001c 1C4A     		ldr	r2, .L2+20
  50 001e 1360     		str	r3, [r2]
 224:.\Generated_Source\PSoC4/I2C_EZI2C.c ****         I2C_RX_FIFO_CTRL_REG = I2C_EZI2C_DEFAULT_RX_FIFO_CTRL;
  51              		.loc 1 224 0
  52 0020 0024     		mov	r4, #0
  53 0022 1C4A     		ldr	r2, .L2+24
  54 0024 1460     		str	r4, [r2]
 225:.\Generated_Source\PSoC4/I2C_EZI2C.c **** 
 226:.\Generated_Source\PSoC4/I2C_EZI2C.c ****         /* Set default address and mask */
 227:.\Generated_Source\PSoC4/I2C_EZI2C.c ****         I2C_RX_MATCH_REG     = I2C_EZI2C_DEFAULT_RX_MATCH;
  55              		.loc 1 227 0
  56 0026 1C49     		ldr	r1, .L2+28
  57 0028 1C4A     		ldr	r2, .L2+32
  58 002a 1160     		str	r1, [r2]
ARM GAS  C:\Users\cdc75\AppData\Local\Temp\ccz5LJyZ.s 			page 6


 228:.\Generated_Source\PSoC4/I2C_EZI2C.c **** 
 229:.\Generated_Source\PSoC4/I2C_EZI2C.c ****         /* Configure TX direction */
 230:.\Generated_Source\PSoC4/I2C_EZI2C.c ****         I2C_TX_CTRL_REG      = I2C_EZI2C_DEFAULT_TX_CTRL;
  59              		.loc 1 230 0
  60 002c 1C4A     		ldr	r2, .L2+36
  61 002e 1360     		str	r3, [r2]
 231:.\Generated_Source\PSoC4/I2C_EZI2C.c ****         I2C_TX_FIFO_CTRL_REG = I2C_EZI2C_DEFAULT_TX_FIFO_CTRL;
  62              		.loc 1 231 0
  63 0030 1C4B     		ldr	r3, .L2+40
  64 0032 1C60     		str	r4, [r3]
 232:.\Generated_Source\PSoC4/I2C_EZI2C.c **** 
 233:.\Generated_Source\PSoC4/I2C_EZI2C.c ****         /* Configure interrupt with EZI2C handler but do not enable it */
 234:.\Generated_Source\PSoC4/I2C_EZI2C.c ****     #if !defined (CY_EXTERNAL_INTERRUPT_CONFIG)
 235:.\Generated_Source\PSoC4/I2C_EZI2C.c ****         CyIntDisable    (I2C_ISR_NUMBER);
  65              		.loc 1 235 0
  66 0034 0B20     		mov	r0, #11
  67 0036 FFF7FEFF 		bl	CyIntDisable
  68              	.LVL0:
 236:.\Generated_Source\PSoC4/I2C_EZI2C.c ****         CyIntSetPriority(I2C_ISR_NUMBER, I2C_ISR_PRIORITY);
  69              		.loc 1 236 0
  70 003a 0B20     		mov	r0, #11
  71 003c 0321     		mov	r1, #3
  72 003e FFF7FEFF 		bl	CyIntSetPriority
  73              	.LVL1:
 237:.\Generated_Source\PSoC4/I2C_EZI2C.c **** 
 238:.\Generated_Source\PSoC4/I2C_EZI2C.c ****     #if (I2C_EZI2C_SCL_STRETCH_ENABLE_CONST)
 239:.\Generated_Source\PSoC4/I2C_EZI2C.c ****         (void) CyIntSetVector(I2C_ISR_NUMBER, &I2C_EZI2C_STRETCH_ISR);
  74              		.loc 1 239 0
  75 0042 0B20     		mov	r0, #11
  76 0044 1849     		ldr	r1, .L2+44
  77 0046 FFF7FEFF 		bl	CyIntSetVector
  78              	.LVL2:
 240:.\Generated_Source\PSoC4/I2C_EZI2C.c ****     #else
 241:.\Generated_Source\PSoC4/I2C_EZI2C.c ****         (void) CyIntSetVector(I2C_ISR_NUMBER, &I2C_EZI2C_NO_STRETCH_ISR);
 242:.\Generated_Source\PSoC4/I2C_EZI2C.c ****     #endif /* (I2C_EZI2C_SCL_STRETCH_ENABLE_CONST) */
 243:.\Generated_Source\PSoC4/I2C_EZI2C.c **** 
 244:.\Generated_Source\PSoC4/I2C_EZI2C.c ****     #endif /* !defined (CY_EXTERNAL_INTERRUPT_CONFIG) */
 245:.\Generated_Source\PSoC4/I2C_EZI2C.c **** 
 246:.\Generated_Source\PSoC4/I2C_EZI2C.c ****         /* Configure interrupt sources */
 247:.\Generated_Source\PSoC4/I2C_EZI2C.c ****     #if (!I2C_CY_SCBIP_V1)
 248:.\Generated_Source\PSoC4/I2C_EZI2C.c ****         I2C_INTR_SPI_EC_MASK_REG = I2C_EZI2C_DEFAULT_INTR_SPI_EC_MASK;
  79              		.loc 1 248 0
  80 004a 184B     		ldr	r3, .L2+48
  81 004c 1C60     		str	r4, [r3]
 249:.\Generated_Source\PSoC4/I2C_EZI2C.c ****     #endif /* (!I2C_CY_SCBIP_V1) */
 250:.\Generated_Source\PSoC4/I2C_EZI2C.c **** 
 251:.\Generated_Source\PSoC4/I2C_EZI2C.c ****         I2C_INTR_I2C_EC_MASK_REG = I2C_EZI2C_DEFAULT_INTR_I2C_EC_MASK;
  82              		.loc 1 251 0
  83 004e 184B     		ldr	r3, .L2+52
  84 0050 1C60     		str	r4, [r3]
 252:.\Generated_Source\PSoC4/I2C_EZI2C.c ****         I2C_INTR_SLAVE_MASK_REG  = I2C_EZI2C_DEFAULT_INTR_SLAVE_MASK;
  85              		.loc 1 252 0
  86 0052 5222     		mov	r2, #82
  87 0054 FF32     		add	r2, r2, #255
  88 0056 174B     		ldr	r3, .L2+56
  89 0058 1A60     		str	r2, [r3]
 253:.\Generated_Source\PSoC4/I2C_EZI2C.c ****         I2C_INTR_MASTER_MASK_REG = I2C_EZI2C_DEFAULT_INTR_MASTER_MASK;
ARM GAS  C:\Users\cdc75\AppData\Local\Temp\ccz5LJyZ.s 			page 7


  90              		.loc 1 253 0
  91 005a 174B     		ldr	r3, .L2+60
  92 005c 1C60     		str	r4, [r3]
 254:.\Generated_Source\PSoC4/I2C_EZI2C.c ****         I2C_INTR_RX_MASK_REG     = I2C_EZI2C_DEFAULT_INTR_RX_MASK;
  93              		.loc 1 254 0
  94 005e 174B     		ldr	r3, .L2+64
  95 0060 1C60     		str	r4, [r3]
 255:.\Generated_Source\PSoC4/I2C_EZI2C.c ****         I2C_INTR_TX_MASK_REG     = I2C_EZI2C_DEFAULT_INTR_TX_MASK;
  96              		.loc 1 255 0
  97 0062 174B     		ldr	r3, .L2+68
  98 0064 1C60     		str	r4, [r3]
 256:.\Generated_Source\PSoC4/I2C_EZI2C.c **** 
 257:.\Generated_Source\PSoC4/I2C_EZI2C.c ****         /* Configure global variables */
 258:.\Generated_Source\PSoC4/I2C_EZI2C.c ****         I2C_fsmState = I2C_EZI2C_FSM_IDLE;
  99              		.loc 1 258 0
 100 0066 174B     		ldr	r3, .L2+72
 101 0068 1C70     		strb	r4, [r3]
 259:.\Generated_Source\PSoC4/I2C_EZI2C.c **** 
 260:.\Generated_Source\PSoC4/I2C_EZI2C.c ****         I2C_curStatus  = 0u;
 102              		.loc 1 260 0
 103 006a 174B     		ldr	r3, .L2+76
 104 006c 1C70     		strb	r4, [r3]
 261:.\Generated_Source\PSoC4/I2C_EZI2C.c ****         I2C_indexBuf1  = 0u;
 105              		.loc 1 261 0
 106 006e 174B     		ldr	r3, .L2+80
 107 0070 1C80     		strh	r4, [r3]
 262:.\Generated_Source\PSoC4/I2C_EZI2C.c ****         I2C_offsetBuf1 = 0u;
 108              		.loc 1 262 0
 109 0072 174B     		ldr	r3, .L2+84
 110 0074 0022     		mov	r2, #0
 111 0076 1A70     		strb	r2, [r3]
 263:.\Generated_Source\PSoC4/I2C_EZI2C.c **** 
 264:.\Generated_Source\PSoC4/I2C_EZI2C.c ****     #if(I2C_SECONDARY_ADDRESS_ENABLE_CONST)
 265:.\Generated_Source\PSoC4/I2C_EZI2C.c ****         I2C_indexBuf2  = 0u;
 266:.\Generated_Source\PSoC4/I2C_EZI2C.c ****         I2C_offsetBuf2 = 0u;
 267:.\Generated_Source\PSoC4/I2C_EZI2C.c **** 
 268:.\Generated_Source\PSoC4/I2C_EZI2C.c ****         I2C_addrBuf1 = I2C_EZI2C_PRIMARY_SLAVE_ADDRESS;
 269:.\Generated_Source\PSoC4/I2C_EZI2C.c ****         I2C_addrBuf2 = I2C_EZI2C_SECONDARY_SLAVE_ADDRESS;
 270:.\Generated_Source\PSoC4/I2C_EZI2C.c ****     #endif /* (I2C_SECONDARY_ADDRESS_ENABLE_CONST) */
 271:.\Generated_Source\PSoC4/I2C_EZI2C.c ****     }
 112              		.loc 1 271 0
 113              		@ sp needed
 114 0078 10BD     		pop	{r4, pc}
 115              	.L3:
 116 007a C046     		.align	2
 117              	.L2:
 118 007c 00000740 		.word	1074200576
 119 0080 00080040 		.word	1073743872
 120 0084 60000740 		.word	1074200672
 121 0088 70000740 		.word	1074200688
 122 008c 07010080 		.word	-2147483385
 123 0090 00030740 		.word	1074201344
 124 0094 04030740 		.word	1074201348
 125 0098 1000FE00 		.word	16646160
 126 009c 10030740 		.word	1074201360
 127 00a0 00020740 		.word	1074201088
 128 00a4 04020740 		.word	1074201092
ARM GAS  C:\Users\cdc75\AppData\Local\Temp\ccz5LJyZ.s 			page 8


 129 00a8 00000000 		.word	I2C_EZI2C_STRETCH_ISR
 130 00ac C80E0740 		.word	1074204360
 131 00b0 880E0740 		.word	1074204296
 132 00b4 480F0740 		.word	1074204488
 133 00b8 080F0740 		.word	1074204424
 134 00bc C80F0740 		.word	1074204616
 135 00c0 880F0740 		.word	1074204552
 136 00c4 00000000 		.word	I2C_fsmState
 137 00c8 00000000 		.word	I2C_curStatus
 138 00cc 00000000 		.word	I2C_indexBuf1
 139 00d0 00000000 		.word	I2C_offsetBuf1
 140              		.cfi_endproc
 141              	.LFE0:
 142              		.size	I2C_EzI2CInit, .-I2C_EzI2CInit
 143              		.section	.text.I2C_EzI2CStop,"ax",%progbits
 144              		.align	2
 145              		.global	I2C_EzI2CStop
 146              		.code	16
 147              		.thumb_func
 148              		.type	I2C_EzI2CStop, %function
 149              	I2C_EzI2CStop:
 150              	.LFB1:
 272:.\Generated_Source\PSoC4/I2C_EZI2C.c **** #endif /* (I2C_SCB_MODE_UNCONFIG_CONST_CFG) */
 273:.\Generated_Source\PSoC4/I2C_EZI2C.c **** 
 274:.\Generated_Source\PSoC4/I2C_EZI2C.c **** 
 275:.\Generated_Source\PSoC4/I2C_EZI2C.c **** /*******************************************************************************
 276:.\Generated_Source\PSoC4/I2C_EZI2C.c **** * Function Name: I2C_EzI2CStop
 277:.\Generated_Source\PSoC4/I2C_EZI2C.c **** ****************************************************************************//**
 278:.\Generated_Source\PSoC4/I2C_EZI2C.c **** *
 279:.\Generated_Source\PSoC4/I2C_EZI2C.c **** *  Resets the EZI2C FSM into the default state.
 280:.\Generated_Source\PSoC4/I2C_EZI2C.c **** *
 281:.\Generated_Source\PSoC4/I2C_EZI2C.c **** *******************************************************************************/
 282:.\Generated_Source\PSoC4/I2C_EZI2C.c **** void I2C_EzI2CStop(void)
 283:.\Generated_Source\PSoC4/I2C_EZI2C.c **** {
 151              		.loc 1 283 0
 152              		.cfi_startproc
 284:.\Generated_Source\PSoC4/I2C_EZI2C.c ****     I2C_fsmState = I2C_EZI2C_FSM_IDLE;
 153              		.loc 1 284 0
 154 0000 0022     		mov	r2, #0
 155 0002 014B     		ldr	r3, .L5
 156 0004 1A70     		strb	r2, [r3]
 285:.\Generated_Source\PSoC4/I2C_EZI2C.c **** }
 157              		.loc 1 285 0
 158              		@ sp needed
 159 0006 7047     		bx	lr
 160              	.L6:
 161              		.align	2
 162              	.L5:
 163 0008 00000000 		.word	I2C_fsmState
 164              		.cfi_endproc
 165              	.LFE1:
 166              		.size	I2C_EzI2CStop, .-I2C_EzI2CStop
 167              		.section	.text.I2C_EzI2CGetActivity,"ax",%progbits
 168              		.align	2
 169              		.global	I2C_EzI2CGetActivity
 170              		.code	16
 171              		.thumb_func
ARM GAS  C:\Users\cdc75\AppData\Local\Temp\ccz5LJyZ.s 			page 9


 172              		.type	I2C_EzI2CGetActivity, %function
 173              	I2C_EzI2CGetActivity:
 174              	.LFB2:
 286:.\Generated_Source\PSoC4/I2C_EZI2C.c **** 
 287:.\Generated_Source\PSoC4/I2C_EZI2C.c **** 
 288:.\Generated_Source\PSoC4/I2C_EZI2C.c **** /*******************************************************************************
 289:.\Generated_Source\PSoC4/I2C_EZI2C.c **** * Function Name: I2C_EzI2CGetActivity
 290:.\Generated_Source\PSoC4/I2C_EZI2C.c **** ****************************************************************************//**
 291:.\Generated_Source\PSoC4/I2C_EZI2C.c **** *
 292:.\Generated_Source\PSoC4/I2C_EZI2C.c **** *  Returns the EZI2C slave status.
 293:.\Generated_Source\PSoC4/I2C_EZI2C.c **** *  The read, write and error status flags reset to zero after this function
 294:.\Generated_Source\PSoC4/I2C_EZI2C.c **** *  call. The busy status flag is cleared when the transaction intended for
 295:.\Generated_Source\PSoC4/I2C_EZI2C.c **** *  the EZI2C slave completes.
 296:.\Generated_Source\PSoC4/I2C_EZI2C.c **** *
 297:.\Generated_Source\PSoC4/I2C_EZI2C.c **** * \return
 298:.\Generated_Source\PSoC4/I2C_EZI2C.c **** *  Returns the status of the EZI2C Slave activity.
 299:.\Generated_Source\PSoC4/I2C_EZI2C.c **** *  - I2C_EZI2C_STATUS_READ1 - Read transfer complete. The transfer 
 300:.\Generated_Source\PSoC4/I2C_EZI2C.c **** *    used the primary slave address. The error condition status bit must be 
 301:.\Generated_Source\PSoC4/I2C_EZI2C.c **** *    checked to ensure that read transfer was completed successfully.
 302:.\Generated_Source\PSoC4/I2C_EZI2C.c **** *  - I2C_EZI2C_STATUS_WRITE1 - Write transfer complete. The buffer 
 303:.\Generated_Source\PSoC4/I2C_EZI2C.c **** *    content was modified. The transfer used the primary slave address. 
 304:.\Generated_Source\PSoC4/I2C_EZI2C.c **** *    The error condition status bit must be checked to ensure that write 
 305:.\Generated_Source\PSoC4/I2C_EZI2C.c **** *    transfer was completed successfully.
 306:.\Generated_Source\PSoC4/I2C_EZI2C.c **** *  - I2C_EZI2C_STATUS_READ2 - Read transfer complete. The transfer
 307:.\Generated_Source\PSoC4/I2C_EZI2C.c **** *    used the secondary slave address. The error condition status bit must be 
 308:.\Generated_Source\PSoC4/I2C_EZI2C.c **** *    checked to ensure that read transfer was completed successfully.
 309:.\Generated_Source\PSoC4/I2C_EZI2C.c **** *  - I2C_EZI2C_STATUS_WRITE2 - Write transfer complete. The buffer
 310:.\Generated_Source\PSoC4/I2C_EZI2C.c **** *    content was modified. The transfer used the secondary slave address. 
 311:.\Generated_Source\PSoC4/I2C_EZI2C.c **** *    The error condition status bit must be checked to ensure that write 
 312:.\Generated_Source\PSoC4/I2C_EZI2C.c **** *    transfer was completed successfully.
 313:.\Generated_Source\PSoC4/I2C_EZI2C.c **** *  - I2C_EZI2C_STATUS_BUSY - A transfer intended for the primary 
 314:.\Generated_Source\PSoC4/I2C_EZI2C.c **** *    or secondary address is in progress. The status bit is set after an 
 315:.\Generated_Source\PSoC4/I2C_EZI2C.c **** *    address match and cleared on a Stop or ReStart condition.
 316:.\Generated_Source\PSoC4/I2C_EZI2C.c **** *  - I2C_EZI2C_STATUS_ERR - An error occurred during a transfer 
 317:.\Generated_Source\PSoC4/I2C_EZI2C.c **** *    intended for the primary or secondary slave address. The sources of error
 318:.\Generated_Source\PSoC4/I2C_EZI2C.c **** *    are: misplaced Start or Stop condition or lost arbitration while slave 
 319:.\Generated_Source\PSoC4/I2C_EZI2C.c **** *    drives SDA.
 320:.\Generated_Source\PSoC4/I2C_EZI2C.c **** *    The write buffer may contain invalid byte or part of the transaction when 
 321:.\Generated_Source\PSoC4/I2C_EZI2C.c **** *    I2C_EZI2C_STATUS_ERR and I2C_EZI2C_STATUS_WRITE1/2 
 322:.\Generated_Source\PSoC4/I2C_EZI2C.c **** *    is set. It is recommended to discard buffer content in this case.
 323:.\Generated_Source\PSoC4/I2C_EZI2C.c **** *
 324:.\Generated_Source\PSoC4/I2C_EZI2C.c **** * \globalvars
 325:.\Generated_Source\PSoC4/I2C_EZI2C.c **** *  I2C_curStatus - used to store the current status of the EZI2C 
 326:.\Generated_Source\PSoC4/I2C_EZI2C.c **** *  slave.
 327:.\Generated_Source\PSoC4/I2C_EZI2C.c **** *
 328:.\Generated_Source\PSoC4/I2C_EZI2C.c **** *******************************************************************************/
 329:.\Generated_Source\PSoC4/I2C_EZI2C.c **** uint32 I2C_EzI2CGetActivity(void)
 330:.\Generated_Source\PSoC4/I2C_EZI2C.c **** {
 175              		.loc 1 330 0
 176              		.cfi_startproc
 177 0000 10B5     		push	{r4, lr}
 178              		.cfi_def_cfa_offset 8
 179              		.cfi_offset 4, -8
 180              		.cfi_offset 14, -4
 331:.\Generated_Source\PSoC4/I2C_EZI2C.c ****     uint32 status;
 332:.\Generated_Source\PSoC4/I2C_EZI2C.c **** 
 333:.\Generated_Source\PSoC4/I2C_EZI2C.c ****     I2C_DisableInt();  /* Lock from interruption */
ARM GAS  C:\Users\cdc75\AppData\Local\Temp\ccz5LJyZ.s 			page 10


 181              		.loc 1 333 0
 182 0002 0B20     		mov	r0, #11
 183 0004 FFF7FEFF 		bl	CyIntDisable
 184              	.LVL3:
 334:.\Generated_Source\PSoC4/I2C_EZI2C.c **** 
 335:.\Generated_Source\PSoC4/I2C_EZI2C.c ****     status = I2C_curStatus;
 185              		.loc 1 335 0
 186 0008 054B     		ldr	r3, .L8
 187 000a 1C78     		ldrb	r4, [r3]
 188 000c E4B2     		uxtb	r4, r4
 189              	.LVL4:
 336:.\Generated_Source\PSoC4/I2C_EZI2C.c **** 
 337:.\Generated_Source\PSoC4/I2C_EZI2C.c ****     /* Relay on address match event from HW as bus busy status */
 338:.\Generated_Source\PSoC4/I2C_EZI2C.c ****     #if(I2C_EZI2C_SCL_STRETCH_DISABLE)
 339:.\Generated_Source\PSoC4/I2C_EZI2C.c ****     {
 340:.\Generated_Source\PSoC4/I2C_EZI2C.c ****         /* For I2C_CY_SCBIP_V0 the wake is prohibited by customizer */
 341:.\Generated_Source\PSoC4/I2C_EZI2C.c ****         #if(I2C_EZI2C_EC_AM_ENABLE)
 342:.\Generated_Source\PSoC4/I2C_EZI2C.c ****         {
 343:.\Generated_Source\PSoC4/I2C_EZI2C.c ****             status |= I2C_CHECK_INTR_I2C_EC(I2C_INTR_I2C_EC_WAKE_UP) ?
 344:.\Generated_Source\PSoC4/I2C_EZI2C.c ****                         I2C_EZI2C_STATUS_BUSY : 0u;
 345:.\Generated_Source\PSoC4/I2C_EZI2C.c ****         }
 346:.\Generated_Source\PSoC4/I2C_EZI2C.c ****         #else
 347:.\Generated_Source\PSoC4/I2C_EZI2C.c ****         {
 348:.\Generated_Source\PSoC4/I2C_EZI2C.c ****             status |= I2C_CHECK_INTR_SLAVE(I2C_INTR_SLAVE_I2C_ADDR_MATCH) ?
 349:.\Generated_Source\PSoC4/I2C_EZI2C.c ****                         I2C_EZI2C_STATUS_BUSY : 0u;
 350:.\Generated_Source\PSoC4/I2C_EZI2C.c ****         }
 351:.\Generated_Source\PSoC4/I2C_EZI2C.c ****         #endif
 352:.\Generated_Source\PSoC4/I2C_EZI2C.c ****     }
 353:.\Generated_Source\PSoC4/I2C_EZI2C.c ****     #endif
 354:.\Generated_Source\PSoC4/I2C_EZI2C.c **** 
 355:.\Generated_Source\PSoC4/I2C_EZI2C.c ****     I2C_curStatus &= ((uint8) ~I2C_EZI2C_CLEAR_STATUS);
 190              		.loc 1 355 0
 191 000e 1A78     		ldrb	r2, [r3]
 192 0010 1F21     		mov	r1, #31
 193 0012 8A43     		bic	r2, r1
 194 0014 1A70     		strb	r2, [r3]
 356:.\Generated_Source\PSoC4/I2C_EZI2C.c **** 
 357:.\Generated_Source\PSoC4/I2C_EZI2C.c ****     I2C_EnableInt();   /* Release lock */
 195              		.loc 1 357 0
 196 0016 0B20     		mov	r0, #11
 197 0018 FFF7FEFF 		bl	CyIntEnable
 198              	.LVL5:
 358:.\Generated_Source\PSoC4/I2C_EZI2C.c **** 
 359:.\Generated_Source\PSoC4/I2C_EZI2C.c ****     return(status);
 360:.\Generated_Source\PSoC4/I2C_EZI2C.c **** }
 199              		.loc 1 360 0
 200 001c 201C     		mov	r0, r4
 201              		@ sp needed
 202              	.LVL6:
 203 001e 10BD     		pop	{r4, pc}
 204              	.L9:
 205              		.align	2
 206              	.L8:
 207 0020 00000000 		.word	I2C_curStatus
 208              		.cfi_endproc
 209              	.LFE2:
 210              		.size	I2C_EzI2CGetActivity, .-I2C_EzI2CGetActivity
ARM GAS  C:\Users\cdc75\AppData\Local\Temp\ccz5LJyZ.s 			page 11


 211              		.section	.text.I2C_EzI2CSetAddress1,"ax",%progbits
 212              		.align	2
 213              		.global	I2C_EzI2CSetAddress1
 214              		.code	16
 215              		.thumb_func
 216              		.type	I2C_EzI2CSetAddress1, %function
 217              	I2C_EzI2CSetAddress1:
 218              	.LFB3:
 361:.\Generated_Source\PSoC4/I2C_EZI2C.c **** 
 362:.\Generated_Source\PSoC4/I2C_EZI2C.c **** 
 363:.\Generated_Source\PSoC4/I2C_EZI2C.c **** /*******************************************************************************
 364:.\Generated_Source\PSoC4/I2C_EZI2C.c **** * Function Name: I2C_EzI2CSetAddress1
 365:.\Generated_Source\PSoC4/I2C_EZI2C.c **** ****************************************************************************//**
 366:.\Generated_Source\PSoC4/I2C_EZI2C.c **** *
 367:.\Generated_Source\PSoC4/I2C_EZI2C.c **** *  Sets the primary EZI2C slave address.
 368:.\Generated_Source\PSoC4/I2C_EZI2C.c **** *
 369:.\Generated_Source\PSoC4/I2C_EZI2C.c **** * \param address: I2C slave address for the secondary device.
 370:.\Generated_Source\PSoC4/I2C_EZI2C.c **** *  This address is the 7-bit right-justified slave address and does not 
 371:.\Generated_Source\PSoC4/I2C_EZI2C.c **** *   include the R/W bit.
 372:.\Generated_Source\PSoC4/I2C_EZI2C.c **** *
 373:.\Generated_Source\PSoC4/I2C_EZI2C.c **** *  The address value is not checked to see if it violates the I2C spec. 
 374:.\Generated_Source\PSoC4/I2C_EZI2C.c **** *  The preferred addresses are in the range between 8 and 120 (0x08 to 0x78).
 375:.\Generated_Source\PSoC4/I2C_EZI2C.c **** *
 376:.\Generated_Source\PSoC4/I2C_EZI2C.c **** * \globalvars
 377:.\Generated_Source\PSoC4/I2C_EZI2C.c **** *  I2C_addrBuf1 - used to store the primary 7-bit slave address 
 378:.\Generated_Source\PSoC4/I2C_EZI2C.c **** *  value.
 379:.\Generated_Source\PSoC4/I2C_EZI2C.c **** *
 380:.\Generated_Source\PSoC4/I2C_EZI2C.c **** *******************************************************************************/
 381:.\Generated_Source\PSoC4/I2C_EZI2C.c **** void I2C_EzI2CSetAddress1(uint32 address)
 382:.\Generated_Source\PSoC4/I2C_EZI2C.c **** {
 219              		.loc 1 382 0
 220              		.cfi_startproc
 221              	.LVL7:
 222              	.LBB2:
 383:.\Generated_Source\PSoC4/I2C_EZI2C.c ****     #if(I2C_SECONDARY_ADDRESS_ENABLE)
 384:.\Generated_Source\PSoC4/I2C_EZI2C.c ****     {
 385:.\Generated_Source\PSoC4/I2C_EZI2C.c ****         I2C_addrBuf1 = (uint8) address;
 386:.\Generated_Source\PSoC4/I2C_EZI2C.c **** 
 387:.\Generated_Source\PSoC4/I2C_EZI2C.c ****         I2C_RX_MATCH_REG = 
 388:.\Generated_Source\PSoC4/I2C_EZI2C.c ****                         I2C_EzI2CUpdateRxMatchReg(address, (uint32) I2C_addrBuf2);
 389:.\Generated_Source\PSoC4/I2C_EZI2C.c ****     }
 390:.\Generated_Source\PSoC4/I2C_EZI2C.c ****     #else
 391:.\Generated_Source\PSoC4/I2C_EZI2C.c ****     {
 392:.\Generated_Source\PSoC4/I2C_EZI2C.c ****         uint32 matchReg;
 393:.\Generated_Source\PSoC4/I2C_EZI2C.c **** 
 394:.\Generated_Source\PSoC4/I2C_EZI2C.c ****         matchReg = I2C_RX_MATCH_REG;
 223              		.loc 1 394 0
 224 0000 044A     		ldr	r2, .L11
 225 0002 1368     		ldr	r3, [r2]
 226              	.LVL8:
 395:.\Generated_Source\PSoC4/I2C_EZI2C.c **** 
 396:.\Generated_Source\PSoC4/I2C_EZI2C.c ****         /* Set address. */
 397:.\Generated_Source\PSoC4/I2C_EZI2C.c ****         matchReg &= (uint32) ~I2C_RX_MATCH_ADDR_MASK;
 227              		.loc 1 397 0
 228 0004 FF21     		mov	r1, #255
 229 0006 8B43     		bic	r3, r1
 230              	.LVL9:
ARM GAS  C:\Users\cdc75\AppData\Local\Temp\ccz5LJyZ.s 			page 12


 398:.\Generated_Source\PSoC4/I2C_EZI2C.c ****         matchReg |= (uint32)  I2C_GET_I2C_8BIT_ADDRESS(address);
 231              		.loc 1 398 0
 232 0008 4000     		lsl	r0, r0, #1
 233              	.LVL10:
 234 000a 0840     		and	r0, r1
 235 000c 1843     		orr	r0, r3
 236              	.LVL11:
 399:.\Generated_Source\PSoC4/I2C_EZI2C.c **** 
 400:.\Generated_Source\PSoC4/I2C_EZI2C.c ****         I2C_RX_MATCH_REG = matchReg;
 237              		.loc 1 400 0
 238 000e 1060     		str	r0, [r2]
 239              	.LBE2:
 401:.\Generated_Source\PSoC4/I2C_EZI2C.c ****     }
 402:.\Generated_Source\PSoC4/I2C_EZI2C.c ****     #endif
 403:.\Generated_Source\PSoC4/I2C_EZI2C.c **** }
 240              		.loc 1 403 0
 241              		@ sp needed
 242 0010 7047     		bx	lr
 243              	.L12:
 244 0012 C046     		.align	2
 245              	.L11:
 246 0014 10030740 		.word	1074201360
 247              		.cfi_endproc
 248              	.LFE3:
 249              		.size	I2C_EzI2CSetAddress1, .-I2C_EzI2CSetAddress1
 250              		.section	.text.I2C_EzI2CGetAddress1,"ax",%progbits
 251              		.align	2
 252              		.global	I2C_EzI2CGetAddress1
 253              		.code	16
 254              		.thumb_func
 255              		.type	I2C_EzI2CGetAddress1, %function
 256              	I2C_EzI2CGetAddress1:
 257              	.LFB4:
 404:.\Generated_Source\PSoC4/I2C_EZI2C.c **** 
 405:.\Generated_Source\PSoC4/I2C_EZI2C.c **** 
 406:.\Generated_Source\PSoC4/I2C_EZI2C.c **** /*******************************************************************************
 407:.\Generated_Source\PSoC4/I2C_EZI2C.c **** * Function Name: I2C_EzI2CGetAddress1
 408:.\Generated_Source\PSoC4/I2C_EZI2C.c **** ****************************************************************************//**
 409:.\Generated_Source\PSoC4/I2C_EZI2C.c **** *
 410:.\Generated_Source\PSoC4/I2C_EZI2C.c **** *  Returns primary the EZ I2C slave address.
 411:.\Generated_Source\PSoC4/I2C_EZI2C.c **** *  This address is the 7-bit right-justified slave address and does not include 
 412:.\Generated_Source\PSoC4/I2C_EZI2C.c **** *  the R/W bit.
 413:.\Generated_Source\PSoC4/I2C_EZI2C.c **** *
 414:.\Generated_Source\PSoC4/I2C_EZI2C.c **** * \return
 415:.\Generated_Source\PSoC4/I2C_EZI2C.c **** *  Primary EZI2C slave address.
 416:.\Generated_Source\PSoC4/I2C_EZI2C.c **** *
 417:.\Generated_Source\PSoC4/I2C_EZI2C.c **** * \globalvars
 418:.\Generated_Source\PSoC4/I2C_EZI2C.c **** *  I2C_addrBuf1 - used to store the primary 7-bit slave address 
 419:.\Generated_Source\PSoC4/I2C_EZI2C.c **** *  value.
 420:.\Generated_Source\PSoC4/I2C_EZI2C.c **** *
 421:.\Generated_Source\PSoC4/I2C_EZI2C.c **** *******************************************************************************/
 422:.\Generated_Source\PSoC4/I2C_EZI2C.c **** uint32 I2C_EzI2CGetAddress1(void)
 423:.\Generated_Source\PSoC4/I2C_EZI2C.c **** {
 258              		.loc 1 423 0
 259              		.cfi_startproc
 424:.\Generated_Source\PSoC4/I2C_EZI2C.c ****     uint32 address;
 425:.\Generated_Source\PSoC4/I2C_EZI2C.c **** 
ARM GAS  C:\Users\cdc75\AppData\Local\Temp\ccz5LJyZ.s 			page 13


 426:.\Generated_Source\PSoC4/I2C_EZI2C.c ****     #if(I2C_SECONDARY_ADDRESS_ENABLE)
 427:.\Generated_Source\PSoC4/I2C_EZI2C.c ****     {
 428:.\Generated_Source\PSoC4/I2C_EZI2C.c ****         address = (uint32) I2C_addrBuf1;
 429:.\Generated_Source\PSoC4/I2C_EZI2C.c ****     }
 430:.\Generated_Source\PSoC4/I2C_EZI2C.c ****     #else
 431:.\Generated_Source\PSoC4/I2C_EZI2C.c ****     {
 432:.\Generated_Source\PSoC4/I2C_EZI2C.c ****         address = (I2C_GET_RX_MATCH_ADDR(I2C_RX_MATCH_REG) >>
 260              		.loc 1 432 0
 261 0000 024B     		ldr	r3, .L14
 262 0002 1868     		ldr	r0, [r3]
 263 0004 0006     		lsl	r0, r0, #24
 264 0006 400E     		lsr	r0, r0, #25
 265              	.LVL12:
 433:.\Generated_Source\PSoC4/I2C_EZI2C.c ****                    I2C_I2C_SLAVE_ADDR_POS);
 434:.\Generated_Source\PSoC4/I2C_EZI2C.c ****     }
 435:.\Generated_Source\PSoC4/I2C_EZI2C.c ****     #endif
 436:.\Generated_Source\PSoC4/I2C_EZI2C.c **** 
 437:.\Generated_Source\PSoC4/I2C_EZI2C.c ****     return(address);
 438:.\Generated_Source\PSoC4/I2C_EZI2C.c **** }
 266              		.loc 1 438 0
 267              		@ sp needed
 268 0008 7047     		bx	lr
 269              	.L15:
 270 000a C046     		.align	2
 271              	.L14:
 272 000c 10030740 		.word	1074201360
 273              		.cfi_endproc
 274              	.LFE4:
 275              		.size	I2C_EzI2CGetAddress1, .-I2C_EzI2CGetAddress1
 276              		.section	.text.I2C_EzI2CSetBuffer1,"ax",%progbits
 277              		.align	2
 278              		.global	I2C_EzI2CSetBuffer1
 279              		.code	16
 280              		.thumb_func
 281              		.type	I2C_EzI2CSetBuffer1, %function
 282              	I2C_EzI2CSetBuffer1:
 283              	.LFB5:
 439:.\Generated_Source\PSoC4/I2C_EZI2C.c **** 
 440:.\Generated_Source\PSoC4/I2C_EZI2C.c **** 
 441:.\Generated_Source\PSoC4/I2C_EZI2C.c **** /*******************************************************************************
 442:.\Generated_Source\PSoC4/I2C_EZI2C.c **** * Function Name: I2C_EzI2CSetBuffer1
 443:.\Generated_Source\PSoC4/I2C_EZI2C.c **** ****************************************************************************//**
 444:.\Generated_Source\PSoC4/I2C_EZI2C.c **** *
 445:.\Generated_Source\PSoC4/I2C_EZI2C.c **** *  Sets up the data buffer to be exposed to the I2C master on a primary slave
 446:.\Generated_Source\PSoC4/I2C_EZI2C.c **** *  address request.
 447:.\Generated_Source\PSoC4/I2C_EZI2C.c **** *
 448:.\Generated_Source\PSoC4/I2C_EZI2C.c **** * \param bufSize: Size of the buffer in bytes.
 449:.\Generated_Source\PSoC4/I2C_EZI2C.c **** * \param rwBoundary: Number of data bytes starting from the beginning of the 
 450:.\Generated_Source\PSoC4/I2C_EZI2C.c **** *  buffer with read and write access. Data bytes located at offset rwBoundary 
 451:.\Generated_Source\PSoC4/I2C_EZI2C.c **** *  or greater are read only.
 452:.\Generated_Source\PSoC4/I2C_EZI2C.c **** *  This value must be less than or equal to the buffer size.
 453:.\Generated_Source\PSoC4/I2C_EZI2C.c **** * \param buffer: Pointer to the data buffer.
 454:.\Generated_Source\PSoC4/I2C_EZI2C.c **** *
 455:.\Generated_Source\PSoC4/I2C_EZI2C.c **** * \sideeffect
 456:.\Generated_Source\PSoC4/I2C_EZI2C.c **** *  Calling this function in the middle of a transaction intended for the 
 457:.\Generated_Source\PSoC4/I2C_EZI2C.c **** *  primary slave address leads to unexpected behavior.
 458:.\Generated_Source\PSoC4/I2C_EZI2C.c **** *
ARM GAS  C:\Users\cdc75\AppData\Local\Temp\ccz5LJyZ.s 			page 14


 459:.\Generated_Source\PSoC4/I2C_EZI2C.c **** * \globalvars
 460:.\Generated_Source\PSoC4/I2C_EZI2C.c **** *  I2C_dataBuffer1 – the pointer to the buffer to be exposed to the
 461:.\Generated_Source\PSoC4/I2C_EZI2C.c **** *  master on a primary address.
 462:.\Generated_Source\PSoC4/I2C_EZI2C.c **** *  I2C_bufSizeBuf1 - the size of the buffer to be exposed to the 
 463:.\Generated_Source\PSoC4/I2C_EZI2C.c **** *  master on a primary address.
 464:.\Generated_Source\PSoC4/I2C_EZI2C.c **** *  I2C_protectBuf1 - the start index of the read-only region in the
 465:.\Generated_Source\PSoC4/I2C_EZI2C.c **** *  buffer to be exposed to the master on a primary address. The read-only region
 466:.\Generated_Source\PSoC4/I2C_EZI2C.c **** *  continues up to the end the buffer.
 467:.\Generated_Source\PSoC4/I2C_EZI2C.c **** *
 468:.\Generated_Source\PSoC4/I2C_EZI2C.c **** *******************************************************************************/
 469:.\Generated_Source\PSoC4/I2C_EZI2C.c **** void I2C_EzI2CSetBuffer1(uint32 bufSize, uint32 rwBoundary, volatile uint8 * buffer)
 470:.\Generated_Source\PSoC4/I2C_EZI2C.c **** {
 284              		.loc 1 470 0
 285              		.cfi_startproc
 286              	.LVL13:
 287 0000 70B5     		push	{r4, r5, r6, lr}
 288              		.cfi_def_cfa_offset 16
 289              		.cfi_offset 4, -16
 290              		.cfi_offset 5, -12
 291              		.cfi_offset 6, -8
 292              		.cfi_offset 14, -4
 293 0002 061C     		mov	r6, r0
 294 0004 0D1C     		mov	r5, r1
 295 0006 141E     		sub	r4, r2, #0
 471:.\Generated_Source\PSoC4/I2C_EZI2C.c ****     if (NULL != buffer)
 296              		.loc 1 471 0
 297 0008 0BD0     		beq	.L16
 472:.\Generated_Source\PSoC4/I2C_EZI2C.c ****     {
 473:.\Generated_Source\PSoC4/I2C_EZI2C.c ****         I2C_DisableInt();  /* Lock from interruption */
 298              		.loc 1 473 0
 299 000a 0B20     		mov	r0, #11
 300              	.LVL14:
 301 000c FFF7FEFF 		bl	CyIntDisable
 302              	.LVL15:
 474:.\Generated_Source\PSoC4/I2C_EZI2C.c **** 
 475:.\Generated_Source\PSoC4/I2C_EZI2C.c ****         I2C_dataBuffer1 =  buffer;
 303              		.loc 1 475 0
 304 0010 044B     		ldr	r3, .L18
 305 0012 1C60     		str	r4, [r3]
 476:.\Generated_Source\PSoC4/I2C_EZI2C.c ****         I2C_bufSizeBuf1 = (uint16) bufSize;
 306              		.loc 1 476 0
 307 0014 044B     		ldr	r3, .L18+4
 308 0016 1E80     		strh	r6, [r3]
 477:.\Generated_Source\PSoC4/I2C_EZI2C.c ****         I2C_protectBuf1 = (uint16) rwBoundary;
 309              		.loc 1 477 0
 310 0018 044B     		ldr	r3, .L18+8
 311 001a 1D80     		strh	r5, [r3]
 478:.\Generated_Source\PSoC4/I2C_EZI2C.c **** 
 479:.\Generated_Source\PSoC4/I2C_EZI2C.c ****         I2C_EnableInt();   /* Release lock */
 312              		.loc 1 479 0
 313 001c 0B20     		mov	r0, #11
 314 001e FFF7FEFF 		bl	CyIntEnable
 315              	.LVL16:
 316              	.L16:
 480:.\Generated_Source\PSoC4/I2C_EZI2C.c ****     }
 481:.\Generated_Source\PSoC4/I2C_EZI2C.c **** }
 317              		.loc 1 481 0
ARM GAS  C:\Users\cdc75\AppData\Local\Temp\ccz5LJyZ.s 			page 15


 318              		@ sp needed
 319              	.LVL17:
 320              	.LVL18:
 321              	.LVL19:
 322 0022 70BD     		pop	{r4, r5, r6, pc}
 323              	.L19:
 324              		.align	2
 325              	.L18:
 326 0024 00000000 		.word	I2C_dataBuffer1
 327 0028 00000000 		.word	I2C_bufSizeBuf1
 328 002c 00000000 		.word	I2C_protectBuf1
 329              		.cfi_endproc
 330              	.LFE5:
 331              		.size	I2C_EzI2CSetBuffer1, .-I2C_EzI2CSetBuffer1
 332              		.section	.text.I2C_EzI2CSetReadBoundaryBuffer1,"ax",%progbits
 333              		.align	2
 334              		.global	I2C_EzI2CSetReadBoundaryBuffer1
 335              		.code	16
 336              		.thumb_func
 337              		.type	I2C_EzI2CSetReadBoundaryBuffer1, %function
 338              	I2C_EzI2CSetReadBoundaryBuffer1:
 339              	.LFB6:
 482:.\Generated_Source\PSoC4/I2C_EZI2C.c **** 
 483:.\Generated_Source\PSoC4/I2C_EZI2C.c **** 
 484:.\Generated_Source\PSoC4/I2C_EZI2C.c **** /*******************************************************************************
 485:.\Generated_Source\PSoC4/I2C_EZI2C.c **** * Function Name: I2C_EzI2CSetReadBoundaryBuffer1
 486:.\Generated_Source\PSoC4/I2C_EZI2C.c **** ****************************************************************************//**
 487:.\Generated_Source\PSoC4/I2C_EZI2C.c **** *
 488:.\Generated_Source\PSoC4/I2C_EZI2C.c **** *  Sets the read only boundary in the data buffer to be exposed to the I2C
 489:.\Generated_Source\PSoC4/I2C_EZI2C.c **** *  master on a primary slave address request.
 490:.\Generated_Source\PSoC4/I2C_EZI2C.c **** *
 491:.\Generated_Source\PSoC4/I2C_EZI2C.c **** * \param rwBoundry: Number of data bytes starting from the beginning of the 
 492:.\Generated_Source\PSoC4/I2C_EZI2C.c **** *  buffer with read and write access. Data bytes located at offset rwBoundary 
 493:.\Generated_Source\PSoC4/I2C_EZI2C.c **** *  or greater are read only.
 494:.\Generated_Source\PSoC4/I2C_EZI2C.c **** *  This value must be less than or equal to the buffer size.
 495:.\Generated_Source\PSoC4/I2C_EZI2C.c **** *
 496:.\Generated_Source\PSoC4/I2C_EZI2C.c **** * \sideeffect
 497:.\Generated_Source\PSoC4/I2C_EZI2C.c **** *  Calling this function in the middle of a transaction intended for the 
 498:.\Generated_Source\PSoC4/I2C_EZI2C.c **** *  primary slave address leads to unexpected behavior.
 499:.\Generated_Source\PSoC4/I2C_EZI2C.c **** *
 500:.\Generated_Source\PSoC4/I2C_EZI2C.c **** * \globalvars
 501:.\Generated_Source\PSoC4/I2C_EZI2C.c **** *  I2C_protectBuf1 - the start index of the read-only region in the
 502:.\Generated_Source\PSoC4/I2C_EZI2C.c **** *  buffer to be exposed to the master on a primary address. The read-only region
 503:.\Generated_Source\PSoC4/I2C_EZI2C.c **** *  continues up to the end the buffer.
 504:.\Generated_Source\PSoC4/I2C_EZI2C.c **** *
 505:.\Generated_Source\PSoC4/I2C_EZI2C.c **** *******************************************************************************/
 506:.\Generated_Source\PSoC4/I2C_EZI2C.c **** void I2C_EzI2CSetReadBoundaryBuffer1(uint32 rwBoundary)
 507:.\Generated_Source\PSoC4/I2C_EZI2C.c **** {
 340              		.loc 1 507 0
 341              		.cfi_startproc
 342              	.LVL20:
 508:.\Generated_Source\PSoC4/I2C_EZI2C.c ****     I2C_protectBuf1 = (uint16) rwBoundary;
 343              		.loc 1 508 0
 344 0000 014B     		ldr	r3, .L21
 345 0002 1880     		strh	r0, [r3]
 509:.\Generated_Source\PSoC4/I2C_EZI2C.c **** }
 346              		.loc 1 509 0
ARM GAS  C:\Users\cdc75\AppData\Local\Temp\ccz5LJyZ.s 			page 16


 347              		@ sp needed
 348 0004 7047     		bx	lr
 349              	.L22:
 350 0006 C046     		.align	2
 351              	.L21:
 352 0008 00000000 		.word	I2C_protectBuf1
 353              		.cfi_endproc
 354              	.LFE6:
 355              		.size	I2C_EzI2CSetReadBoundaryBuffer1, .-I2C_EzI2CSetReadBoundaryBuffer1
 356              		.section	.text.I2C_EzI2CSaveConfig,"ax",%progbits
 357              		.align	2
 358              		.global	I2C_EzI2CSaveConfig
 359              		.code	16
 360              		.thumb_func
 361              		.type	I2C_EzI2CSaveConfig, %function
 362              	I2C_EzI2CSaveConfig:
 363              	.LFB7:
 510:.\Generated_Source\PSoC4/I2C_EZI2C.c **** 
 511:.\Generated_Source\PSoC4/I2C_EZI2C.c **** 
 512:.\Generated_Source\PSoC4/I2C_EZI2C.c **** #if(I2C_SECONDARY_ADDRESS_ENABLE_CONST)
 513:.\Generated_Source\PSoC4/I2C_EZI2C.c ****     /*******************************************************************************
 514:.\Generated_Source\PSoC4/I2C_EZI2C.c ****     * Function Name: I2C_EzI2CUpdateRxMatchReg
 515:.\Generated_Source\PSoC4/I2C_EZI2C.c ****     ****************************************************************************//**
 516:.\Generated_Source\PSoC4/I2C_EZI2C.c ****     *
 517:.\Generated_Source\PSoC4/I2C_EZI2C.c ****     *  Returns the value of the RX MATCH register for addr1 and addr2. The addr1 is
 518:.\Generated_Source\PSoC4/I2C_EZI2C.c ****     *  accepted as the primary address and it is written to RX_MATCH.ADDRESS
 519:.\Generated_Source\PSoC4/I2C_EZI2C.c ****     *  (addr1 << 0x01).
 520:.\Generated_Source\PSoC4/I2C_EZI2C.c ****     *  The RX_MATCH.MASK is set as follow: addr1 and addr2 equal bits set to 1
 521:.\Generated_Source\PSoC4/I2C_EZI2C.c ****     *  otherwise 0.
 522:.\Generated_Source\PSoC4/I2C_EZI2C.c ****     *
 523:.\Generated_Source\PSoC4/I2C_EZI2C.c ****     * \param addr1: I2C slave address for the primary device.
 524:.\Generated_Source\PSoC4/I2C_EZI2C.c ****     * \param addr2: I2C slave address for the secondary device.
 525:.\Generated_Source\PSoC4/I2C_EZI2C.c ****     *  This address is the 7-bit right-justified slave address and does
 526:.\Generated_Source\PSoC4/I2C_EZI2C.c ****     *  not include the R/W bit.
 527:.\Generated_Source\PSoC4/I2C_EZI2C.c ****     *
 528:.\Generated_Source\PSoC4/I2C_EZI2C.c ****     * \return
 529:.\Generated_Source\PSoC4/I2C_EZI2C.c ****     *  Value of RX MATCH register.
 530:.\Generated_Source\PSoC4/I2C_EZI2C.c ****     *
 531:.\Generated_Source\PSoC4/I2C_EZI2C.c ****     *******************************************************************************/
 532:.\Generated_Source\PSoC4/I2C_EZI2C.c ****     static uint32 I2C_EzI2CUpdateRxMatchReg(uint32 addr1, uint32 addr2)
 533:.\Generated_Source\PSoC4/I2C_EZI2C.c ****     {
 534:.\Generated_Source\PSoC4/I2C_EZI2C.c ****         uint32 matchReg;
 535:.\Generated_Source\PSoC4/I2C_EZI2C.c **** 
 536:.\Generated_Source\PSoC4/I2C_EZI2C.c ****         matchReg  = ~(addr1 ^ addr2); /* If (addr1 and addr2) bit matches - mask bit equals 1, in o
 537:.\Generated_Source\PSoC4/I2C_EZI2C.c **** 
 538:.\Generated_Source\PSoC4/I2C_EZI2C.c ****         matchReg  = (uint32) (I2C_GET_I2C_8BIT_ADDRESS(matchReg) << I2C_RX_MATCH_MASK_POS);
 539:.\Generated_Source\PSoC4/I2C_EZI2C.c ****         matchReg |= I2C_GET_I2C_8BIT_ADDRESS(addr1);
 540:.\Generated_Source\PSoC4/I2C_EZI2C.c **** 
 541:.\Generated_Source\PSoC4/I2C_EZI2C.c ****         return(matchReg);
 542:.\Generated_Source\PSoC4/I2C_EZI2C.c ****     }
 543:.\Generated_Source\PSoC4/I2C_EZI2C.c **** 
 544:.\Generated_Source\PSoC4/I2C_EZI2C.c ****     /*******************************************************************************
 545:.\Generated_Source\PSoC4/I2C_EZI2C.c ****     * Function Name: I2C_EzI2CSetAddress2
 546:.\Generated_Source\PSoC4/I2C_EZI2C.c ****     ****************************************************************************//**
 547:.\Generated_Source\PSoC4/I2C_EZI2C.c ****     *
 548:.\Generated_Source\PSoC4/I2C_EZI2C.c ****     *  Sets the secondary EZI2C slave address.
 549:.\Generated_Source\PSoC4/I2C_EZI2C.c ****     *
ARM GAS  C:\Users\cdc75\AppData\Local\Temp\ccz5LJyZ.s 			page 17


 550:.\Generated_Source\PSoC4/I2C_EZI2C.c ****     * \param address: secondary I2C slave address.
 551:.\Generated_Source\PSoC4/I2C_EZI2C.c ****     *  This address is the 7-bit right-justified slave address and does not 
 552:.\Generated_Source\PSoC4/I2C_EZI2C.c ****     *  include the R/W bit.
 553:.\Generated_Source\PSoC4/I2C_EZI2C.c ****     *  The address value is not checked to see if it violates the I2C spec. 
 554:.\Generated_Source\PSoC4/I2C_EZI2C.c ****     *  The preferred addresses are in the range between 8 and 120 (0x08 to 0x78).
 555:.\Generated_Source\PSoC4/I2C_EZI2C.c ****     *
 556:.\Generated_Source\PSoC4/I2C_EZI2C.c ****     * \globalvars
 557:.\Generated_Source\PSoC4/I2C_EZI2C.c ****     *  I2C_addrBuf2 - used to store the secondary 7-bit slave address 
 558:.\Generated_Source\PSoC4/I2C_EZI2C.c ****     *  value.
 559:.\Generated_Source\PSoC4/I2C_EZI2C.c ****     *
 560:.\Generated_Source\PSoC4/I2C_EZI2C.c ****     *******************************************************************************/
 561:.\Generated_Source\PSoC4/I2C_EZI2C.c ****     void I2C_EzI2CSetAddress2(uint32 address)
 562:.\Generated_Source\PSoC4/I2C_EZI2C.c ****     {
 563:.\Generated_Source\PSoC4/I2C_EZI2C.c ****         I2C_addrBuf2 = (uint8) address;
 564:.\Generated_Source\PSoC4/I2C_EZI2C.c **** 
 565:.\Generated_Source\PSoC4/I2C_EZI2C.c ****         I2C_RX_MATCH_REG = 
 566:.\Generated_Source\PSoC4/I2C_EZI2C.c ****                         I2C_EzI2CUpdateRxMatchReg((uint32) I2C_addrBuf1, address);
 567:.\Generated_Source\PSoC4/I2C_EZI2C.c ****     }
 568:.\Generated_Source\PSoC4/I2C_EZI2C.c **** 
 569:.\Generated_Source\PSoC4/I2C_EZI2C.c **** 
 570:.\Generated_Source\PSoC4/I2C_EZI2C.c ****     /*******************************************************************************
 571:.\Generated_Source\PSoC4/I2C_EZI2C.c ****     * Function Name: I2C_EzI2CGetAddress2
 572:.\Generated_Source\PSoC4/I2C_EZI2C.c ****     ****************************************************************************//**
 573:.\Generated_Source\PSoC4/I2C_EZI2C.c ****     *
 574:.\Generated_Source\PSoC4/I2C_EZI2C.c ****     *  Returns the secondary EZ I2C slave address.
 575:.\Generated_Source\PSoC4/I2C_EZI2C.c ****     *  This address is the 7-bit right-justified slave address and does not include 
 576:.\Generated_Source\PSoC4/I2C_EZI2C.c ****     *  the R/W bit.
 577:.\Generated_Source\PSoC4/I2C_EZI2C.c ****     *
 578:.\Generated_Source\PSoC4/I2C_EZI2C.c ****     * \return
 579:.\Generated_Source\PSoC4/I2C_EZI2C.c ****     *  Secondary I2C slave address.
 580:.\Generated_Source\PSoC4/I2C_EZI2C.c ****     *
 581:.\Generated_Source\PSoC4/I2C_EZI2C.c ****     * \globalvars
 582:.\Generated_Source\PSoC4/I2C_EZI2C.c ****     *  I2C_addrBuf2 - used to store the secondary 7-bit slave address 
 583:.\Generated_Source\PSoC4/I2C_EZI2C.c ****     *  value.
 584:.\Generated_Source\PSoC4/I2C_EZI2C.c ****     *
 585:.\Generated_Source\PSoC4/I2C_EZI2C.c ****     *******************************************************************************/
 586:.\Generated_Source\PSoC4/I2C_EZI2C.c ****     uint32 I2C_EzI2CGetAddress2(void)
 587:.\Generated_Source\PSoC4/I2C_EZI2C.c ****     {
 588:.\Generated_Source\PSoC4/I2C_EZI2C.c ****         return((uint32) I2C_addrBuf2);
 589:.\Generated_Source\PSoC4/I2C_EZI2C.c ****     }
 590:.\Generated_Source\PSoC4/I2C_EZI2C.c **** 
 591:.\Generated_Source\PSoC4/I2C_EZI2C.c **** 
 592:.\Generated_Source\PSoC4/I2C_EZI2C.c ****     /*******************************************************************************
 593:.\Generated_Source\PSoC4/I2C_EZI2C.c ****     * Function Name: I2C_EzI2CSetBuffer2
 594:.\Generated_Source\PSoC4/I2C_EZI2C.c ****     ****************************************************************************//**
 595:.\Generated_Source\PSoC4/I2C_EZI2C.c ****     *
 596:.\Generated_Source\PSoC4/I2C_EZI2C.c ****     *  Sets up the data buffer to be exposed to the I2C master on a secondary slave
 597:.\Generated_Source\PSoC4/I2C_EZI2C.c ****     *  address request.
 598:.\Generated_Source\PSoC4/I2C_EZI2C.c ****     *
 599:.\Generated_Source\PSoC4/I2C_EZI2C.c ****     * \param bufSize: Size of the buffer in bytes.
 600:.\Generated_Source\PSoC4/I2C_EZI2C.c ****     * \param rwBoundary: Number of data bytes starting from the beginning of the 
 601:.\Generated_Source\PSoC4/I2C_EZI2C.c ****     *  buffer with read and write access. Data bytes located at offset rwBoundary 
 602:.\Generated_Source\PSoC4/I2C_EZI2C.c ****     *  or greater are read only.
 603:.\Generated_Source\PSoC4/I2C_EZI2C.c ****     *  This value must be less than or equal to the buffer size.
 604:.\Generated_Source\PSoC4/I2C_EZI2C.c ****     * \param buffer: Pointer to the data buffer.
 605:.\Generated_Source\PSoC4/I2C_EZI2C.c ****     *
 606:.\Generated_Source\PSoC4/I2C_EZI2C.c ****     * \sideeffects
ARM GAS  C:\Users\cdc75\AppData\Local\Temp\ccz5LJyZ.s 			page 18


 607:.\Generated_Source\PSoC4/I2C_EZI2C.c ****     *  Calling this function in the middle of a transaction intended for the 
 608:.\Generated_Source\PSoC4/I2C_EZI2C.c ****     *  secondary slave address leads to unexpected behavior.
 609:.\Generated_Source\PSoC4/I2C_EZI2C.c ****     *
 610:.\Generated_Source\PSoC4/I2C_EZI2C.c ****     * \globalvars
 611:.\Generated_Source\PSoC4/I2C_EZI2C.c ****     *  I2C_dataBuffer2 – the pointer to the buffer to be exposed to the
 612:.\Generated_Source\PSoC4/I2C_EZI2C.c ****     *  master on a secondary address.
 613:.\Generated_Source\PSoC4/I2C_EZI2C.c ****     *  I2C_bufSizeBuf2 - the size of the buffer to be exposed to the 
 614:.\Generated_Source\PSoC4/I2C_EZI2C.c ****     *  master on a secondary address.
 615:.\Generated_Source\PSoC4/I2C_EZI2C.c ****     *  I2C_protectBuf2 - the start index of the read-only region in the
 616:.\Generated_Source\PSoC4/I2C_EZI2C.c ****     *  buffer to be exposed to the master on a secondary address. The read-only 
 617:.\Generated_Source\PSoC4/I2C_EZI2C.c ****     *  region continues up to the end the buffer.
 618:.\Generated_Source\PSoC4/I2C_EZI2C.c ****     *
 619:.\Generated_Source\PSoC4/I2C_EZI2C.c ****     *******************************************************************************/
 620:.\Generated_Source\PSoC4/I2C_EZI2C.c ****     void I2C_EzI2CSetBuffer2(uint32 bufSize, uint32 rwBoundary, volatile uint8 * buffer)
 621:.\Generated_Source\PSoC4/I2C_EZI2C.c ****     {
 622:.\Generated_Source\PSoC4/I2C_EZI2C.c ****         if (NULL != buffer)
 623:.\Generated_Source\PSoC4/I2C_EZI2C.c ****         {
 624:.\Generated_Source\PSoC4/I2C_EZI2C.c ****             I2C_DisableInt();  /* Lock from interruption */
 625:.\Generated_Source\PSoC4/I2C_EZI2C.c **** 
 626:.\Generated_Source\PSoC4/I2C_EZI2C.c ****             I2C_dataBuffer2 =  buffer;
 627:.\Generated_Source\PSoC4/I2C_EZI2C.c ****             I2C_bufSizeBuf2 = (uint16) bufSize;
 628:.\Generated_Source\PSoC4/I2C_EZI2C.c ****             I2C_protectBuf2 = (uint16) rwBoundary;
 629:.\Generated_Source\PSoC4/I2C_EZI2C.c **** 
 630:.\Generated_Source\PSoC4/I2C_EZI2C.c ****             I2C_EnableInt();   /* Release lock */
 631:.\Generated_Source\PSoC4/I2C_EZI2C.c ****         }
 632:.\Generated_Source\PSoC4/I2C_EZI2C.c ****     }
 633:.\Generated_Source\PSoC4/I2C_EZI2C.c **** 
 634:.\Generated_Source\PSoC4/I2C_EZI2C.c **** 
 635:.\Generated_Source\PSoC4/I2C_EZI2C.c ****     /*******************************************************************************
 636:.\Generated_Source\PSoC4/I2C_EZI2C.c ****     * Function Name: I2C_EzI2CSetReadBoundaryBuffer2
 637:.\Generated_Source\PSoC4/I2C_EZI2C.c ****     ****************************************************************************//**
 638:.\Generated_Source\PSoC4/I2C_EZI2C.c ****     *
 639:.\Generated_Source\PSoC4/I2C_EZI2C.c ****     *  Sets the read only boundary in the data buffer to be exposed to the I2C
 640:.\Generated_Source\PSoC4/I2C_EZI2C.c ****     *  master on a secondary address request.
 641:.\Generated_Source\PSoC4/I2C_EZI2C.c ****     *
 642:.\Generated_Source\PSoC4/I2C_EZI2C.c ****     *  \param rwBoundary: Number of data bytes starting from the beginning of the
 643:.\Generated_Source\PSoC4/I2C_EZI2C.c ****     *   buffer with read and write access. Data bytes located at offset rwBoundary 
 644:.\Generated_Source\PSoC4/I2C_EZI2C.c ****     *   or greater are read only.
 645:.\Generated_Source\PSoC4/I2C_EZI2C.c ****     *   This value must be less than or equal to the buffer size.
 646:.\Generated_Source\PSoC4/I2C_EZI2C.c ****     *
 647:.\Generated_Source\PSoC4/I2C_EZI2C.c ****     *  \sideeffect
 648:.\Generated_Source\PSoC4/I2C_EZI2C.c ****     *   Calling this function in the middle of a transaction intended for the 
 649:.\Generated_Source\PSoC4/I2C_EZI2C.c ****     *   secondary slave address leads to unexpected behavior.
 650:.\Generated_Source\PSoC4/I2C_EZI2C.c ****     *
 651:.\Generated_Source\PSoC4/I2C_EZI2C.c ****     * \globalvars
 652:.\Generated_Source\PSoC4/I2C_EZI2C.c ****     *  I2C_protectBuf2 - the start index of the read-only region in the
 653:.\Generated_Source\PSoC4/I2C_EZI2C.c ****     *  buffer to be exposed to the master on a secondary address. The read-only 
 654:.\Generated_Source\PSoC4/I2C_EZI2C.c ****     *  region continues up to the end the buffe
 655:.\Generated_Source\PSoC4/I2C_EZI2C.c ****     *
 656:.\Generated_Source\PSoC4/I2C_EZI2C.c ****     *******************************************************************************/
 657:.\Generated_Source\PSoC4/I2C_EZI2C.c ****     void I2C_EzI2CSetReadBoundaryBuffer2(uint32 rwBoundary)
 658:.\Generated_Source\PSoC4/I2C_EZI2C.c ****     {
 659:.\Generated_Source\PSoC4/I2C_EZI2C.c ****         I2C_protectBuf2 = (uint16) rwBoundary;
 660:.\Generated_Source\PSoC4/I2C_EZI2C.c ****     }
 661:.\Generated_Source\PSoC4/I2C_EZI2C.c **** 
 662:.\Generated_Source\PSoC4/I2C_EZI2C.c **** #endif /* (I2C_SECONDARY_ADDRESS_ENABLE_CONST) */
 663:.\Generated_Source\PSoC4/I2C_EZI2C.c **** 
ARM GAS  C:\Users\cdc75\AppData\Local\Temp\ccz5LJyZ.s 			page 19


 664:.\Generated_Source\PSoC4/I2C_EZI2C.c **** 
 665:.\Generated_Source\PSoC4/I2C_EZI2C.c **** #if(I2C_EZI2C_WAKE_ENABLE_CONST)
 666:.\Generated_Source\PSoC4/I2C_EZI2C.c ****     /*******************************************************************************
 667:.\Generated_Source\PSoC4/I2C_EZI2C.c ****     * Function Name: I2C_EzI2CSaveConfig
 668:.\Generated_Source\PSoC4/I2C_EZI2C.c ****     ****************************************************************************//**
 669:.\Generated_Source\PSoC4/I2C_EZI2C.c ****     *
 670:.\Generated_Source\PSoC4/I2C_EZI2C.c ****     *  Clock stretching is  enabled: Enables INTR_I2C_EC.WAKE_UP interrupt source.
 671:.\Generated_Source\PSoC4/I2C_EZI2C.c ****     *  It triggers on the slave address match.
 672:.\Generated_Source\PSoC4/I2C_EZI2C.c ****     *  Clock stretching is disabled: Waits until the I2C slave becomes free and
 673:.\Generated_Source\PSoC4/I2C_EZI2C.c ****     *  disables the block to perform reconfiguration from the active mode operation
 674:.\Generated_Source\PSoC4/I2C_EZI2C.c ****     *  to deep sleep with wake up on the address match: enables INTR_I2C_EC.WAKE_UP
 675:.\Generated_Source\PSoC4/I2C_EZI2C.c ****     *  interrupt source and disables the INTR_S and INTR_TX interrupt sources.
 676:.\Generated_Source\PSoC4/I2C_EZI2C.c ****     *  The block is disabled before reconfiguration and enabled when
 677:.\Generated_Source\PSoC4/I2C_EZI2C.c ****     *  it is completed.
 678:.\Generated_Source\PSoC4/I2C_EZI2C.c ****     *
 679:.\Generated_Source\PSoC4/I2C_EZI2C.c ****     *******************************************************************************/
 680:.\Generated_Source\PSoC4/I2C_EZI2C.c ****     void I2C_EzI2CSaveConfig(void)
 681:.\Generated_Source\PSoC4/I2C_EZI2C.c ****     {
 364              		.loc 1 681 0
 365              		.cfi_startproc
 682:.\Generated_Source\PSoC4/I2C_EZI2C.c ****     #if(I2C_CY_SCBIP_V0)
 683:.\Generated_Source\PSoC4/I2C_EZI2C.c **** 
 684:.\Generated_Source\PSoC4/I2C_EZI2C.c ****         #if(I2C_EZI2C_SCL_STRETCH_ENABLE)
 685:.\Generated_Source\PSoC4/I2C_EZI2C.c ****         {
 686:.\Generated_Source\PSoC4/I2C_EZI2C.c ****             /* Enable wakeup interrupt source on address match */
 687:.\Generated_Source\PSoC4/I2C_EZI2C.c ****             I2C_SetI2CExtClkInterruptMode(I2C_INTR_I2C_EC_WAKE_UP);
 366              		.loc 1 687 0
 367 0000 0122     		mov	r2, #1
 368 0002 014B     		ldr	r3, .L24
 369 0004 1A60     		str	r2, [r3]
 688:.\Generated_Source\PSoC4/I2C_EZI2C.c ****         }
 689:.\Generated_Source\PSoC4/I2C_EZI2C.c ****         #endif
 690:.\Generated_Source\PSoC4/I2C_EZI2C.c **** 
 691:.\Generated_Source\PSoC4/I2C_EZI2C.c ****     #else
 692:.\Generated_Source\PSoC4/I2C_EZI2C.c ****         uint8 enableInt;
 693:.\Generated_Source\PSoC4/I2C_EZI2C.c **** 
 694:.\Generated_Source\PSoC4/I2C_EZI2C.c ****         enableInt = (uint8) I2C_INTR_I2C_EC_WAKE_UP;
 695:.\Generated_Source\PSoC4/I2C_EZI2C.c **** 
 696:.\Generated_Source\PSoC4/I2C_EZI2C.c ****         #if(I2C_EZI2C_SCL_STRETCH_ENABLE)
 697:.\Generated_Source\PSoC4/I2C_EZI2C.c ****         {
 698:.\Generated_Source\PSoC4/I2C_EZI2C.c ****         #if (I2C_SCB_CLK_INTERNAL)
 699:.\Generated_Source\PSoC4/I2C_EZI2C.c ****             /* Disable clock to internal address match logic. Ticket ID #187931 */
 700:.\Generated_Source\PSoC4/I2C_EZI2C.c ****             I2C_SCBCLK_Stop();
 701:.\Generated_Source\PSoC4/I2C_EZI2C.c ****         #endif /* (I2C_SCB_CLK_INTERNAL) */
 702:.\Generated_Source\PSoC4/I2C_EZI2C.c **** 
 703:.\Generated_Source\PSoC4/I2C_EZI2C.c ****             /* Enable interrupt source to wakeup device */
 704:.\Generated_Source\PSoC4/I2C_EZI2C.c ****             I2C_SetI2CExtClkInterruptMode(enableInt);
 705:.\Generated_Source\PSoC4/I2C_EZI2C.c ****         }
 706:.\Generated_Source\PSoC4/I2C_EZI2C.c ****         #else
 707:.\Generated_Source\PSoC4/I2C_EZI2C.c ****         {
 708:.\Generated_Source\PSoC4/I2C_EZI2C.c ****             for(;;) /* Wait for end of transaction intended to slave */
 709:.\Generated_Source\PSoC4/I2C_EZI2C.c ****             {
 710:.\Generated_Source\PSoC4/I2C_EZI2C.c ****                 if(0u == (I2C_GetI2CExtClkInterruptSource() & I2C_INTR_I2C_EC_WAKE_UP))
 711:.\Generated_Source\PSoC4/I2C_EZI2C.c ****                 {
 712:.\Generated_Source\PSoC4/I2C_EZI2C.c ****                     enableInt = CyEnterCriticalSection();
 713:.\Generated_Source\PSoC4/I2C_EZI2C.c **** 
 714:.\Generated_Source\PSoC4/I2C_EZI2C.c ****                     if(0u == (I2C_GetI2CExtClkInterruptSource() & I2C_INTR_I2C_EC_WAKE_UP))
ARM GAS  C:\Users\cdc75\AppData\Local\Temp\ccz5LJyZ.s 			page 20


 715:.\Generated_Source\PSoC4/I2C_EZI2C.c ****                     {
 716:.\Generated_Source\PSoC4/I2C_EZI2C.c ****                         /* Attempts to set NACK command before disable block */
 717:.\Generated_Source\PSoC4/I2C_EZI2C.c ****                         I2C_I2C_SLAVE_GENERATE_NACK;
 718:.\Generated_Source\PSoC4/I2C_EZI2C.c **** 
 719:.\Generated_Source\PSoC4/I2C_EZI2C.c ****                         if(0u == (I2C_GetI2CExtClkInterruptSource() & I2C_INTR_I2C_EC_WAKE_UP))
 720:.\Generated_Source\PSoC4/I2C_EZI2C.c ****                         {
 721:.\Generated_Source\PSoC4/I2C_EZI2C.c ****                             /* NACK command was set before. It is safe to disable block */
 722:.\Generated_Source\PSoC4/I2C_EZI2C.c ****                             I2C_CTRL_REG &= (uint32) ~I2C_CTRL_ENABLED;
 723:.\Generated_Source\PSoC4/I2C_EZI2C.c ****                             I2C_DisableInt();
 724:.\Generated_Source\PSoC4/I2C_EZI2C.c **** 
 725:.\Generated_Source\PSoC4/I2C_EZI2C.c ****                             CyExitCriticalSection(enableInt);
 726:.\Generated_Source\PSoC4/I2C_EZI2C.c ****                             break;
 727:.\Generated_Source\PSoC4/I2C_EZI2C.c ****                         }
 728:.\Generated_Source\PSoC4/I2C_EZI2C.c ****                         else
 729:.\Generated_Source\PSoC4/I2C_EZI2C.c ****                         {
 730:.\Generated_Source\PSoC4/I2C_EZI2C.c ****                             /* Clear NACK command to prevent data NACK */
 731:.\Generated_Source\PSoC4/I2C_EZI2C.c ****                             I2C_I2C_SLAVE_CLEAR_NACK;
 732:.\Generated_Source\PSoC4/I2C_EZI2C.c ****                         }
 733:.\Generated_Source\PSoC4/I2C_EZI2C.c ****                     }
 734:.\Generated_Source\PSoC4/I2C_EZI2C.c **** 
 735:.\Generated_Source\PSoC4/I2C_EZI2C.c ****                     CyExitCriticalSection(enableInt);
 736:.\Generated_Source\PSoC4/I2C_EZI2C.c ****                 }
 737:.\Generated_Source\PSoC4/I2C_EZI2C.c ****             }
 738:.\Generated_Source\PSoC4/I2C_EZI2C.c **** 
 739:.\Generated_Source\PSoC4/I2C_EZI2C.c ****             /* Disable all active mode interrupt sources */
 740:.\Generated_Source\PSoC4/I2C_EZI2C.c ****             I2C_SetTxInterruptMode(I2C_NO_INTR_SOURCES);
 741:.\Generated_Source\PSoC4/I2C_EZI2C.c ****             I2C_SetSlaveInterruptMode(I2C_NO_INTR_SOURCES);
 742:.\Generated_Source\PSoC4/I2C_EZI2C.c ****             I2C_ClearPendingInt();
 743:.\Generated_Source\PSoC4/I2C_EZI2C.c ****             I2C_EnableInt();
 744:.\Generated_Source\PSoC4/I2C_EZI2C.c **** 
 745:.\Generated_Source\PSoC4/I2C_EZI2C.c ****             /* Enable wakeup interrupt on address match */
 746:.\Generated_Source\PSoC4/I2C_EZI2C.c ****             I2C_SetI2CExtClkInterruptMode(I2C_INTR_I2C_EC_WAKE_UP);
 747:.\Generated_Source\PSoC4/I2C_EZI2C.c **** 
 748:.\Generated_Source\PSoC4/I2C_EZI2C.c ****             enableInt = CyEnterCriticalSection();
 749:.\Generated_Source\PSoC4/I2C_EZI2C.c **** 
 750:.\Generated_Source\PSoC4/I2C_EZI2C.c ****             I2C_CTRL_REG |= (uint32) I2C_CTRL_ENABLED;
 751:.\Generated_Source\PSoC4/I2C_EZI2C.c ****             I2C_I2C_SLAVE_GENERATE_NACK;
 752:.\Generated_Source\PSoC4/I2C_EZI2C.c **** 
 753:.\Generated_Source\PSoC4/I2C_EZI2C.c ****             CyExitCriticalSection(enableInt);
 754:.\Generated_Source\PSoC4/I2C_EZI2C.c ****         }
 755:.\Generated_Source\PSoC4/I2C_EZI2C.c ****         #endif
 756:.\Generated_Source\PSoC4/I2C_EZI2C.c ****     #endif /* (I2C_CY_SCBIP_V0) */
 757:.\Generated_Source\PSoC4/I2C_EZI2C.c ****     }
 370              		.loc 1 757 0
 371              		@ sp needed
 372 0006 7047     		bx	lr
 373              	.L25:
 374              		.align	2
 375              	.L24:
 376 0008 880E0740 		.word	1074204296
 377              		.cfi_endproc
 378              	.LFE7:
 379              		.size	I2C_EzI2CSaveConfig, .-I2C_EzI2CSaveConfig
 380              		.section	.text.I2C_EzI2CRestoreConfig,"ax",%progbits
 381              		.align	2
 382              		.global	I2C_EzI2CRestoreConfig
 383              		.code	16
ARM GAS  C:\Users\cdc75\AppData\Local\Temp\ccz5LJyZ.s 			page 21


 384              		.thumb_func
 385              		.type	I2C_EzI2CRestoreConfig, %function
 386              	I2C_EzI2CRestoreConfig:
 387              	.LFB8:
 758:.\Generated_Source\PSoC4/I2C_EZI2C.c **** 
 759:.\Generated_Source\PSoC4/I2C_EZI2C.c **** 
 760:.\Generated_Source\PSoC4/I2C_EZI2C.c ****     /*******************************************************************************
 761:.\Generated_Source\PSoC4/I2C_EZI2C.c ****     * Function Name: I2C_EzI2CRestoreConfig
 762:.\Generated_Source\PSoC4/I2C_EZI2C.c ****     ****************************************************************************//**
 763:.\Generated_Source\PSoC4/I2C_EZI2C.c ****     *
 764:.\Generated_Source\PSoC4/I2C_EZI2C.c ****     *  Clock stretching is  enabled: Disables the INTR_I2C_EC.WAKE_UP interrupt
 765:.\Generated_Source\PSoC4/I2C_EZI2C.c ****     *  source.
 766:.\Generated_Source\PSoC4/I2C_EZI2C.c ****     *  Clock stretching is disabled: Reconfigures the EZI2C component from
 767:.\Generated_Source\PSoC4/I2C_EZI2C.c ****     *  Deep Sleep (wake up on the address match) to active operation: disables
 768:.\Generated_Source\PSoC4/I2C_EZI2C.c ****     *  the INTR_I2C_EC.WAKE_UP interrupt source and restores the INTR_S
 769:.\Generated_Source\PSoC4/I2C_EZI2C.c ****     *  interrupt sources to operate in the active mode.
 770:.\Generated_Source\PSoC4/I2C_EZI2C.c ****     *  The block is disabled before reconfiguration and enabled when
 771:.\Generated_Source\PSoC4/I2C_EZI2C.c ****     *  it is completed.
 772:.\Generated_Source\PSoC4/I2C_EZI2C.c ****     *
 773:.\Generated_Source\PSoC4/I2C_EZI2C.c ****     *******************************************************************************/
 774:.\Generated_Source\PSoC4/I2C_EZI2C.c ****     void I2C_EzI2CRestoreConfig(void)
 775:.\Generated_Source\PSoC4/I2C_EZI2C.c ****     {
 388              		.loc 1 775 0
 389              		.cfi_startproc
 776:.\Generated_Source\PSoC4/I2C_EZI2C.c ****     #if(I2C_CY_SCBIP_V0)
 777:.\Generated_Source\PSoC4/I2C_EZI2C.c **** 
 778:.\Generated_Source\PSoC4/I2C_EZI2C.c ****         #if(I2C_EZI2C_SCL_STRETCH_ENABLE)
 779:.\Generated_Source\PSoC4/I2C_EZI2C.c ****         {
 780:.\Generated_Source\PSoC4/I2C_EZI2C.c ****             /* Disable wakeup interrupt on address match */
 781:.\Generated_Source\PSoC4/I2C_EZI2C.c ****             I2C_SetI2CExtClkInterruptMode(I2C_NO_INTR_SOURCES);
 390              		.loc 1 781 0
 391 0000 0022     		mov	r2, #0
 392 0002 014B     		ldr	r3, .L27
 393 0004 1A60     		str	r2, [r3]
 782:.\Generated_Source\PSoC4/I2C_EZI2C.c ****         }
 783:.\Generated_Source\PSoC4/I2C_EZI2C.c ****         #endif
 784:.\Generated_Source\PSoC4/I2C_EZI2C.c **** 
 785:.\Generated_Source\PSoC4/I2C_EZI2C.c ****     #else
 786:.\Generated_Source\PSoC4/I2C_EZI2C.c **** 
 787:.\Generated_Source\PSoC4/I2C_EZI2C.c ****         #if(I2C_EZI2C_SCL_STRETCH_ENABLE)
 788:.\Generated_Source\PSoC4/I2C_EZI2C.c ****         {
 789:.\Generated_Source\PSoC4/I2C_EZI2C.c ****             /* Disable wakeup interrupt source on address match */
 790:.\Generated_Source\PSoC4/I2C_EZI2C.c ****             I2C_SetI2CExtClkInterruptMode(I2C_NO_INTR_SOURCES);
 791:.\Generated_Source\PSoC4/I2C_EZI2C.c **** 
 792:.\Generated_Source\PSoC4/I2C_EZI2C.c ****         #if (I2C_SCB_CLK_INTERNAL)
 793:.\Generated_Source\PSoC4/I2C_EZI2C.c ****             /* Enable clock to internal address match logic. Ticket ID #187931 */
 794:.\Generated_Source\PSoC4/I2C_EZI2C.c ****             I2C_SCBCLK_Start();
 795:.\Generated_Source\PSoC4/I2C_EZI2C.c ****         #endif /* (I2C_SCB_CLK_INTERNAL) */
 796:.\Generated_Source\PSoC4/I2C_EZI2C.c ****         }
 797:.\Generated_Source\PSoC4/I2C_EZI2C.c ****         #else
 798:.\Generated_Source\PSoC4/I2C_EZI2C.c ****         {
 799:.\Generated_Source\PSoC4/I2C_EZI2C.c ****             /* NACK will be driven on the bus by wakeup or NACK command.
 800:.\Generated_Source\PSoC4/I2C_EZI2C.c ****             * It is safe to disable block to restore active mode configuration.
 801:.\Generated_Source\PSoC4/I2C_EZI2C.c ****             */
 802:.\Generated_Source\PSoC4/I2C_EZI2C.c ****             I2C_CTRL_REG &= (uint32) ~I2C_CTRL_ENABLED;
 803:.\Generated_Source\PSoC4/I2C_EZI2C.c **** 
 804:.\Generated_Source\PSoC4/I2C_EZI2C.c ****             /* Restore active mode interrupt sources */
ARM GAS  C:\Users\cdc75\AppData\Local\Temp\ccz5LJyZ.s 			page 22


 805:.\Generated_Source\PSoC4/I2C_EZI2C.c ****             I2C_SetI2CExtClkInterruptMode(I2C_NO_INTR_SOURCES);
 806:.\Generated_Source\PSoC4/I2C_EZI2C.c ****             I2C_SetSlaveInterruptMode(I2C_EZI2C_INTR_SLAVE_MASK |
 807:.\Generated_Source\PSoC4/I2C_EZI2C.c ****                                                    I2C_INTR_SLAVE_I2C_START);
 808:.\Generated_Source\PSoC4/I2C_EZI2C.c ****             I2C_ClearPendingInt();
 809:.\Generated_Source\PSoC4/I2C_EZI2C.c **** 
 810:.\Generated_Source\PSoC4/I2C_EZI2C.c ****             I2C_CTRL_REG |= (uint32) I2C_CTRL_ENABLED;
 811:.\Generated_Source\PSoC4/I2C_EZI2C.c ****         }
 812:.\Generated_Source\PSoC4/I2C_EZI2C.c ****         #endif
 813:.\Generated_Source\PSoC4/I2C_EZI2C.c **** 
 814:.\Generated_Source\PSoC4/I2C_EZI2C.c ****     #endif /* (I2C_CY_SCBIP_V0) */
 815:.\Generated_Source\PSoC4/I2C_EZI2C.c ****     }
 394              		.loc 1 815 0
 395              		@ sp needed
 396 0006 7047     		bx	lr
 397              	.L28:
 398              		.align	2
 399              	.L27:
 400 0008 880E0740 		.word	1074204296
 401              		.cfi_endproc
 402              	.LFE8:
 403              		.size	I2C_EzI2CRestoreConfig, .-I2C_EzI2CRestoreConfig
 404              		.comm	I2C_indexBuf1,2,2
 405              		.comm	I2C_offsetBuf1,1,1
 406              		.comm	I2C_protectBuf1,2,2
 407              		.comm	I2C_bufSizeBuf1,2,2
 408              		.comm	I2C_dataBuffer1,4,4
 409              		.comm	I2C_fsmState,1,1
 410              		.comm	I2C_curStatus,1,1
 411              		.text
 412              	.Letext0:
 413              		.file 2 "Generated_Source\\PSoC4/cytypes.h"
 414              		.file 3 "Generated_Source\\PSoC4/CyLib.h"