ARM GAS  C:\Users\cdc75\AppData\Local\Temp\ccvSlDbv.s 			page 1


   1              		.cpu cortex-m0
   2              		.fpu softvfp
   3              		.eabi_attribute 20, 1
   4              		.eabi_attribute 21, 1
   5              		.eabi_attribute 23, 3
   6              		.eabi_attribute 24, 1
   7              		.eabi_attribute 25, 1
   8              		.eabi_attribute 26, 1
   9              		.eabi_attribute 30, 1
  10              		.eabi_attribute 34, 0
  11              		.eabi_attribute 18, 4
  12              		.code	16
  13              		.file	"main.c"
  14              		.text
  15              	.Ltext0:
  16              		.cfi_sections	.debug_frame
  17              		.section	.text.Timer_Int_Handler,"ax",%progbits
  18              		.align	2
  19              		.global	Timer_Int_Handler
  20              		.code	16
  21              		.thumb_func
  22              		.type	Timer_Int_Handler, %function
  23              	Timer_Int_Handler:
  24              	.LFB34:
  25              		.file 1 ".\\main.c"
   1:.\main.c      **** /* ========================================
   2:.\main.c      ****  *
   3:.\main.c      ****  * Copyright YOUR COMPANY, THE YEAR
   4:.\main.c      ****  * All Rights Reserved
   5:.\main.c      ****  * UNPUBLISHED, LICENSED SOFTWARE.
   6:.\main.c      ****  *
   7:.\main.c      ****  * CONFIDENTIAL AND PROPRIETARY INFORMATION
   8:.\main.c      ****  * WHICH IS THE PROPERTY OF your company.
   9:.\main.c      ****  *
  10:.\main.c      ****  * ========================================
  11:.\main.c      **** */
  12:.\main.c      **** #include <project.h>
  13:.\main.c      **** CY_ISR(Timer_Int_Handler)
  14:.\main.c      **** {
  26              		.loc 1 14 0
  27              		.cfi_startproc
  28 0000 08B5     		push	{r3, lr}
  29              		.cfi_def_cfa_offset 8
  30              		.cfi_offset 3, -8
  31              		.cfi_offset 14, -4
  15:.\main.c      ****     uint16 counter = Timer_ReadCapture();
  32              		.loc 1 15 0
  33 0002 FFF7FEFF 		bl	Timer_ReadCapture
  34              	.LVL0:
  35 0006 80B2     		uxth	r0, r0
  36              	.LVL1:
  16:.\main.c      ****     
  17:.\main.c      ****     if (counter> 10000)
  37              		.loc 1 17 0
  38 0008 044B     		ldr	r3, .L4
  39 000a 9842     		cmp	r0, r3
  40 000c 00D9     		bls	.L2
ARM GAS  C:\Users\cdc75\AppData\Local\Temp\ccvSlDbv.s 			page 2


  18:.\main.c      ****     {
  19:.\main.c      ****         counter=10000;
  41              		.loc 1 19 0
  42 000e 181C     		mov	r0, r3
  43              	.LVL2:
  44              	.L2:
  20:.\main.c      ****     }
  21:.\main.c      ****     
  22:.\main.c      ****     PWM_WriteCompare(counter);
  45              		.loc 1 22 0
  46 0010 FFF7FEFF 		bl	PWM_WriteCompare
  47              	.LVL3:
  23:.\main.c      ****     Timer_ClearInterrupt(Timer_INTR_MASK_CC_MATCH);
  48              		.loc 1 23 0
  49 0014 0220     		mov	r0, #2
  50 0016 FFF7FEFF 		bl	Timer_ClearInterrupt
  51              	.LVL4:
  24:.\main.c      **** }
  52              		.loc 1 24 0
  53              		@ sp needed
  54 001a 08BD     		pop	{r3, pc}
  55              	.L5:
  56              		.align	2
  57              	.L4:
  58 001c 10270000 		.word	10000
  59              		.cfi_endproc
  60              	.LFE34:
  61              		.size	Timer_Int_Handler, .-Timer_Int_Handler
  62              		.section	.text.main,"ax",%progbits
  63              		.align	2
  64              		.global	main
  65              		.code	16
  66              		.thumb_func
  67              		.type	main, %function
  68              	main:
  69              	.LFB35:
  25:.\main.c      **** 
  26:.\main.c      **** int main()
  27:.\main.c      **** {
  70              		.loc 1 27 0
  71              		.cfi_startproc
  72 0000 08B5     		push	{r3, lr}
  73              		.cfi_def_cfa_offset 8
  74              		.cfi_offset 3, -8
  75              		.cfi_offset 14, -4
  28:.\main.c      ****     CyGlobalIntEnable; /* Enable global interrupts. */
  76              		.loc 1 28 0
  77              	@ 28 ".\main.c" 1
  78 0002 62B6     		CPSIE   i
  79              	@ 0 "" 2
  29:.\main.c      ****     
  30:.\main.c      ****     PWM_Start();
  80              		.loc 1 30 0
  81              		.code	16
  82 0004 FFF7FEFF 		bl	PWM_Start
  83              	.LVL5:
  31:.\main.c      ****     Timer_Start();
ARM GAS  C:\Users\cdc75\AppData\Local\Temp\ccvSlDbv.s 			page 3


  84              		.loc 1 31 0
  85 0008 FFF7FEFF 		bl	Timer_Start
  86              	.LVL6:
  32:.\main.c      ****     Timer_Int_StartEx(Timer_Int_Handler);
  87              		.loc 1 32 0
  88 000c 0148     		ldr	r0, .L8
  89 000e FFF7FEFF 		bl	Timer_Int_StartEx
  90              	.LVL7:
  91              	.L7:
  33:.\main.c      ****     
  34:.\main.c      ****     
  35:.\main.c      ****     for(;;)
  36:.\main.c      ****     {
  37:.\main.c      **** 
  38:.\main.c      ****     }
  92              		.loc 1 38 0 discriminator 1
  93 0012 FEE7     		b	.L7
  94              	.L9:
  95              		.align	2
  96              	.L8:
  97 0014 00000000 		.word	Timer_Int_Handler
  98              		.cfi_endproc
  99              	.LFE35:
 100              		.size	main, .-main
 101              		.text
 102              	.Letext0:
 103              		.file 2 "Generated_Source\\PSoC4/cytypes.h"
 104              		.file 3 "Generated_Source\\PSoC4/PWM.h"
 105              		.file 4 "Generated_Source\\PSoC4/Timer.h"
 106              		.file 5 "Generated_Source\\PSoC4/Timer_Int.h"